Archive member included to satisfy reference by file (symbol)

/usr/lib/gcc/arm-none-eabi/6.3.1/thumb/v7-m/libgcc.a(_arm_addsubdf3.o)
                              ./build/./components/libc/compilers/minilibc/math.o (__aeabi_dsub)
/usr/lib/gcc/arm-none-eabi/6.3.1/thumb/v7-m/libgcc.a(_arm_muldivdf3.o)
                              ./build/./components/libc/compilers/minilibc/math.o (__aeabi_dmul)
/usr/lib/gcc/arm-none-eabi/6.3.1/thumb/v7-m/libgcc.a(_arm_fixdfsi.o)
                              ./build/./components/libc/compilers/minilibc/math.o (__aeabi_d2iz)
/usr/lib/gcc/arm-none-eabi/6.3.1/../../../arm-none-eabi/lib/thumb/v7-m/libc.a(lib_a-atexit.o)
                              /usr/lib/gcc/arm-none-eabi/6.3.1/../../../arm-none-eabi/lib/thumb/v7-m/crt0.o (atexit)
/usr/lib/gcc/arm-none-eabi/6.3.1/../../../arm-none-eabi/lib/thumb/v7-m/libc.a(lib_a-exit.o)
                              /usr/lib/gcc/arm-none-eabi/6.3.1/../../../arm-none-eabi/lib/thumb/v7-m/crt0.o (exit)
/usr/lib/gcc/arm-none-eabi/6.3.1/../../../arm-none-eabi/lib/thumb/v7-m/libc.a(lib_a-fini.o)
                              /usr/lib/gcc/arm-none-eabi/6.3.1/../../../arm-none-eabi/lib/thumb/v7-m/crt0.o (__libc_fini_array)
/usr/lib/gcc/arm-none-eabi/6.3.1/../../../arm-none-eabi/lib/thumb/v7-m/libc.a(lib_a-impure.o)
                              /usr/lib/gcc/arm-none-eabi/6.3.1/../../../arm-none-eabi/lib/thumb/v7-m/libc.a(lib_a-exit.o) (_global_impure_ptr)
/usr/lib/gcc/arm-none-eabi/6.3.1/../../../arm-none-eabi/lib/thumb/v7-m/libc.a(lib_a-init.o)
                              /usr/lib/gcc/arm-none-eabi/6.3.1/../../../arm-none-eabi/lib/thumb/v7-m/crt0.o (__libc_init_array)
/usr/lib/gcc/arm-none-eabi/6.3.1/../../../arm-none-eabi/lib/thumb/v7-m/libc.a(lib_a-__atexit.o)
                              /usr/lib/gcc/arm-none-eabi/6.3.1/../../../arm-none-eabi/lib/thumb/v7-m/libc.a(lib_a-atexit.o) (__register_exitproc)
/usr/lib/gcc/arm-none-eabi/6.3.1/../../../arm-none-eabi/lib/thumb/v7-m/libc.a(lib_a-__call_atexit.o)
                              /usr/lib/gcc/arm-none-eabi/6.3.1/../../../arm-none-eabi/lib/thumb/v7-m/libc.a(lib_a-exit.o) (__call_exitprocs)

Allocating common symbols
Common symbol       size              file

rt_interrupt_to_thread
                    0x4               ./build/./libcpu/arm/cortex-m3/cpuport.o
rt_interrupt_from_thread
                    0x4               ./build/./libcpu/arm/cortex-m3/cpuport.o
shell               0x4               ./build/./components/finsh/shell.o
rt_thread_switch_interrupt_flag
                    0x4               ./build/./libcpu/arm/cortex-m3/cpuport.o
uwTick              0x4               ./build/./bsp/stm32/libraries/STM32F1xx_HAL/STM32F1xx_HAL_Driver/Src/stm32f1xx_hal.o
rt_thread_priority_table
                    0x100             ./build/./src/scheduler.o
rt_object_put_hook  0x4               ./build/./src/object.o
rt_current_priority
                    0x1               ./build/./src/scheduler.o
rt_assert_hook      0x4               ./build/./src/kservice.o
rt_object_take_hook
                    0x4               ./build/./src/object.o
rt_current_thread   0x4               ./build/./src/scheduler.o
rt_thread_ready_priority_group
                    0x4               ./build/./src/scheduler.o
rt_thread_defunct   0x8               ./build/./src/scheduler.o
rt_object_trytake_hook
                    0x4               ./build/./src/object.o

Discarded input sections

 .text          0x0000000000000000        0x0 /usr/lib/gcc/arm-none-eabi/6.3.1/thumb/v7-m/crti.o
 .data          0x0000000000000000        0x0 /usr/lib/gcc/arm-none-eabi/6.3.1/thumb/v7-m/crti.o
 .bss           0x0000000000000000        0x0 /usr/lib/gcc/arm-none-eabi/6.3.1/thumb/v7-m/crti.o
 .data          0x0000000000000000        0x4 /usr/lib/gcc/arm-none-eabi/6.3.1/thumb/v7-m/crtbegin.o
 .fini_array    0x0000000000000000        0x4 /usr/lib/gcc/arm-none-eabi/6.3.1/thumb/v7-m/crtbegin.o
 .text          0x0000000000000000       0x68 /usr/lib/gcc/arm-none-eabi/6.3.1/../../../arm-none-eabi/lib/thumb/v7-m/crt0.o
 .data          0x0000000000000000        0x0 /usr/lib/gcc/arm-none-eabi/6.3.1/../../../arm-none-eabi/lib/thumb/v7-m/crt0.o
 .bss           0x0000000000000000        0x0 /usr/lib/gcc/arm-none-eabi/6.3.1/../../../arm-none-eabi/lib/thumb/v7-m/crt0.o
 .ARM.extab     0x0000000000000000        0x0 /usr/lib/gcc/arm-none-eabi/6.3.1/../../../arm-none-eabi/lib/thumb/v7-m/crt0.o
 .ARM.exidx     0x0000000000000000        0x8 /usr/lib/gcc/arm-none-eabi/6.3.1/../../../arm-none-eabi/lib/thumb/v7-m/crt0.o
 .debug_line    0x0000000000000000       0x7e /usr/lib/gcc/arm-none-eabi/6.3.1/../../../arm-none-eabi/lib/thumb/v7-m/crt0.o
 .debug_info    0x0000000000000000       0xa3 /usr/lib/gcc/arm-none-eabi/6.3.1/../../../arm-none-eabi/lib/thumb/v7-m/crt0.o
 .debug_abbrev  0x0000000000000000       0x14 /usr/lib/gcc/arm-none-eabi/6.3.1/../../../arm-none-eabi/lib/thumb/v7-m/crt0.o
 .debug_aranges
                0x0000000000000000       0x20 /usr/lib/gcc/arm-none-eabi/6.3.1/../../../arm-none-eabi/lib/thumb/v7-m/crt0.o
 .ARM.attributes
                0x0000000000000000       0x1b /usr/lib/gcc/arm-none-eabi/6.3.1/../../../arm-none-eabi/lib/thumb/v7-m/crt0.o
 .text          0x0000000000000000        0x0 ./build/./bsp/stm32/libraries/HAL_Drivers/drv_common.o
 .data          0x0000000000000000        0x0 ./build/./bsp/stm32/libraries/HAL_Drivers/drv_common.o
 .bss           0x0000000000000000        0x0 ./build/./bsp/stm32/libraries/HAL_Drivers/drv_common.o
 .text.HAL_SuspendTick
                0x0000000000000000        0xc ./build/./bsp/stm32/libraries/HAL_Drivers/drv_common.o
 .text.HAL_ResumeTick
                0x0000000000000000        0xc ./build/./bsp/stm32/libraries/HAL_Drivers/drv_common.o
 .text.HAL_Delay
                0x0000000000000000       0x18 ./build/./bsp/stm32/libraries/HAL_Drivers/drv_common.o
 .text.rt_hw_us_delay
                0x0000000000000000       0x68 ./build/./bsp/stm32/libraries/HAL_Drivers/drv_common.o
 .text          0x0000000000000000        0x0 ./build/./bsp/stm32/libraries/HAL_Drivers/drv_gpio.o
 .data          0x0000000000000000        0x0 ./build/./bsp/stm32/libraries/HAL_Drivers/drv_gpio.o
 .bss           0x0000000000000000        0x0 ./build/./bsp/stm32/libraries/HAL_Drivers/drv_gpio.o
 .text          0x0000000000000000        0x0 ./build/./bsp/stm32/libraries/HAL_Drivers/drv_usart.o
 .data          0x0000000000000000        0x0 ./build/./bsp/stm32/libraries/HAL_Drivers/drv_usart.o
 .bss           0x0000000000000000        0x0 ./build/./bsp/stm32/libraries/HAL_Drivers/drv_usart.o
 .text          0x0000000000000000        0x0 ./build/./bsp/stm32/libraries/STM32F1xx_HAL/CMSIS/Device/ST/STM32F1xx/Source/Templates/system_stm32f1xx.o
 .data          0x0000000000000000        0x0 ./build/./bsp/stm32/libraries/STM32F1xx_HAL/CMSIS/Device/ST/STM32F1xx/Source/Templates/system_stm32f1xx.o
 .bss           0x0000000000000000        0x0 ./build/./bsp/stm32/libraries/STM32F1xx_HAL/CMSIS/Device/ST/STM32F1xx/Source/Templates/system_stm32f1xx.o
 .text.SystemCoreClockUpdate
                0x0000000000000000       0xd8 ./build/./bsp/stm32/libraries/STM32F1xx_HAL/CMSIS/Device/ST/STM32F1xx/Source/Templates/system_stm32f1xx.o
 .text          0x0000000000000000        0x0 ./build/./bsp/stm32/libraries/STM32F1xx_HAL/STM32F1xx_HAL_Driver/Src/stm32f1xx_hal.o
 .data          0x0000000000000000        0x0 ./build/./bsp/stm32/libraries/STM32F1xx_HAL/STM32F1xx_HAL_Driver/Src/stm32f1xx_hal.o
 .bss           0x0000000000000000        0x0 ./build/./bsp/stm32/libraries/STM32F1xx_HAL/STM32F1xx_HAL_Driver/Src/stm32f1xx_hal.o
 .text.HAL_DeInit
                0x0000000000000000       0x30 ./build/./bsp/stm32/libraries/STM32F1xx_HAL/STM32F1xx_HAL_Driver/Src/stm32f1xx_hal.o
 .text.HAL_MspInit
                0x0000000000000000        0xc ./build/./bsp/stm32/libraries/STM32F1xx_HAL/STM32F1xx_HAL_Driver/Src/stm32f1xx_hal.o
 .text.HAL_MspDeInit
                0x0000000000000000        0xc ./build/./bsp/stm32/libraries/STM32F1xx_HAL/STM32F1xx_HAL_Driver/Src/stm32f1xx_hal.o
 .text.HAL_InitTick
                0x0000000000000000       0x60 ./build/./bsp/stm32/libraries/STM32F1xx_HAL/STM32F1xx_HAL_Driver/Src/stm32f1xx_hal.o
 .text.HAL_GetTick
                0x0000000000000000       0x14 ./build/./bsp/stm32/libraries/STM32F1xx_HAL/STM32F1xx_HAL_Driver/Src/stm32f1xx_hal.o
 .text.HAL_GetTickPrio
                0x0000000000000000       0x14 ./build/./bsp/stm32/libraries/STM32F1xx_HAL/STM32F1xx_HAL_Driver/Src/stm32f1xx_hal.o
 .text.HAL_SetTickFreq
                0x0000000000000000       0x44 ./build/./bsp/stm32/libraries/STM32F1xx_HAL/STM32F1xx_HAL_Driver/Src/stm32f1xx_hal.o
 .text.HAL_GetTickFreq
                0x0000000000000000       0x14 ./build/./bsp/stm32/libraries/STM32F1xx_HAL/STM32F1xx_HAL_Driver/Src/stm32f1xx_hal.o
 .text.HAL_Delay
                0x0000000000000000       0x44 ./build/./bsp/stm32/libraries/STM32F1xx_HAL/STM32F1xx_HAL_Driver/Src/stm32f1xx_hal.o
 .text.HAL_SuspendTick
                0x0000000000000000       0x1c ./build/./bsp/stm32/libraries/STM32F1xx_HAL/STM32F1xx_HAL_Driver/Src/stm32f1xx_hal.o
 .text.HAL_ResumeTick
                0x0000000000000000       0x1c ./build/./bsp/stm32/libraries/STM32F1xx_HAL/STM32F1xx_HAL_Driver/Src/stm32f1xx_hal.o
 .text.HAL_GetHalVersion
                0x0000000000000000       0x14 ./build/./bsp/stm32/libraries/STM32F1xx_HAL/STM32F1xx_HAL_Driver/Src/stm32f1xx_hal.o
 .text.HAL_GetREVID
                0x0000000000000000       0x18 ./build/./bsp/stm32/libraries/STM32F1xx_HAL/STM32F1xx_HAL_Driver/Src/stm32f1xx_hal.o
 .text.HAL_GetDEVID
                0x0000000000000000       0x18 ./build/./bsp/stm32/libraries/STM32F1xx_HAL/STM32F1xx_HAL_Driver/Src/stm32f1xx_hal.o
 .text.HAL_GetUIDw0
                0x0000000000000000       0x14 ./build/./bsp/stm32/libraries/STM32F1xx_HAL/STM32F1xx_HAL_Driver/Src/stm32f1xx_hal.o
 .text.HAL_GetUIDw1
                0x0000000000000000       0x14 ./build/./bsp/stm32/libraries/STM32F1xx_HAL/STM32F1xx_HAL_Driver/Src/stm32f1xx_hal.o
 .text.HAL_GetUIDw2
                0x0000000000000000       0x14 ./build/./bsp/stm32/libraries/STM32F1xx_HAL/STM32F1xx_HAL_Driver/Src/stm32f1xx_hal.o
 .text.HAL_DBGMCU_EnableDBGSleepMode
                0x0000000000000000       0x1c ./build/./bsp/stm32/libraries/STM32F1xx_HAL/STM32F1xx_HAL_Driver/Src/stm32f1xx_hal.o
 .text.HAL_DBGMCU_DisableDBGSleepMode
                0x0000000000000000       0x1c ./build/./bsp/stm32/libraries/STM32F1xx_HAL/STM32F1xx_HAL_Driver/Src/stm32f1xx_hal.o
 .text.HAL_DBGMCU_EnableDBGStopMode
                0x0000000000000000       0x1c ./build/./bsp/stm32/libraries/STM32F1xx_HAL/STM32F1xx_HAL_Driver/Src/stm32f1xx_hal.o
 .text.HAL_DBGMCU_DisableDBGStopMode
                0x0000000000000000       0x1c ./build/./bsp/stm32/libraries/STM32F1xx_HAL/STM32F1xx_HAL_Driver/Src/stm32f1xx_hal.o
 .text.HAL_DBGMCU_EnableDBGStandbyMode
                0x0000000000000000       0x1c ./build/./bsp/stm32/libraries/STM32F1xx_HAL/STM32F1xx_HAL_Driver/Src/stm32f1xx_hal.o
 .text.HAL_DBGMCU_DisableDBGStandbyMode
                0x0000000000000000       0x1c ./build/./bsp/stm32/libraries/STM32F1xx_HAL/STM32F1xx_HAL_Driver/Src/stm32f1xx_hal.o
 .text          0x0000000000000000        0x0 ./build/./bsp/stm32/libraries/STM32F1xx_HAL/STM32F1xx_HAL_Driver/Src/stm32f1xx_hal_cec.o
 .data          0x0000000000000000        0x0 ./build/./bsp/stm32/libraries/STM32F1xx_HAL/STM32F1xx_HAL_Driver/Src/stm32f1xx_hal_cec.o
 .bss           0x0000000000000000        0x0 ./build/./bsp/stm32/libraries/STM32F1xx_HAL/STM32F1xx_HAL_Driver/Src/stm32f1xx_hal_cec.o
 .debug_info    0x0000000000000000      0x1ff ./build/./bsp/stm32/libraries/STM32F1xx_HAL/STM32F1xx_HAL_Driver/Src/stm32f1xx_hal_cec.o
 .debug_abbrev  0x0000000000000000       0xcd ./build/./bsp/stm32/libraries/STM32F1xx_HAL/STM32F1xx_HAL_Driver/Src/stm32f1xx_hal_cec.o
 .debug_aranges
                0x0000000000000000       0x18 ./build/./bsp/stm32/libraries/STM32F1xx_HAL/STM32F1xx_HAL_Driver/Src/stm32f1xx_hal_cec.o
 .debug_line    0x0000000000000000      0x1a9 ./build/./bsp/stm32/libraries/STM32F1xx_HAL/STM32F1xx_HAL_Driver/Src/stm32f1xx_hal_cec.o
 .debug_str     0x0000000000000000      0x2c0 ./build/./bsp/stm32/libraries/STM32F1xx_HAL/STM32F1xx_HAL_Driver/Src/stm32f1xx_hal_cec.o
 .comment       0x0000000000000000       0x32 ./build/./bsp/stm32/libraries/STM32F1xx_HAL/STM32F1xx_HAL_Driver/Src/stm32f1xx_hal_cec.o
 .ARM.attributes
                0x0000000000000000       0x33 ./build/./bsp/stm32/libraries/STM32F1xx_HAL/STM32F1xx_HAL_Driver/Src/stm32f1xx_hal_cec.o
 .text          0x0000000000000000        0x0 ./build/./bsp/stm32/libraries/STM32F1xx_HAL/STM32F1xx_HAL_Driver/Src/stm32f1xx_hal_cortex.o
 .data          0x0000000000000000        0x0 ./build/./bsp/stm32/libraries/STM32F1xx_HAL/STM32F1xx_HAL_Driver/Src/stm32f1xx_hal_cortex.o
 .bss           0x0000000000000000        0x0 ./build/./bsp/stm32/libraries/STM32F1xx_HAL/STM32F1xx_HAL_Driver/Src/stm32f1xx_hal_cortex.o
 .text.__NVIC_GetPendingIRQ
                0x0000000000000000       0x40 ./build/./bsp/stm32/libraries/STM32F1xx_HAL/STM32F1xx_HAL_Driver/Src/stm32f1xx_hal_cortex.o
 .text.__NVIC_SetPendingIRQ
                0x0000000000000000       0x3c ./build/./bsp/stm32/libraries/STM32F1xx_HAL/STM32F1xx_HAL_Driver/Src/stm32f1xx_hal_cortex.o
 .text.__NVIC_ClearPendingIRQ
                0x0000000000000000       0x3c ./build/./bsp/stm32/libraries/STM32F1xx_HAL/STM32F1xx_HAL_Driver/Src/stm32f1xx_hal_cortex.o
 .text.__NVIC_GetActive
                0x0000000000000000       0x40 ./build/./bsp/stm32/libraries/STM32F1xx_HAL/STM32F1xx_HAL_Driver/Src/stm32f1xx_hal_cortex.o
 .text.__NVIC_GetPriority
                0x0000000000000000       0x4c ./build/./bsp/stm32/libraries/STM32F1xx_HAL/STM32F1xx_HAL_Driver/Src/stm32f1xx_hal_cortex.o
 .text.NVIC_DecodePriority
                0x0000000000000000       0x68 ./build/./bsp/stm32/libraries/STM32F1xx_HAL/STM32F1xx_HAL_Driver/Src/stm32f1xx_hal_cortex.o
 .text.__NVIC_SystemReset
                0x0000000000000000       0x28 ./build/./bsp/stm32/libraries/STM32F1xx_HAL/STM32F1xx_HAL_Driver/Src/stm32f1xx_hal_cortex.o
 .text.HAL_NVIC_SystemReset
                0x0000000000000000        0x8 ./build/./bsp/stm32/libraries/STM32F1xx_HAL/STM32F1xx_HAL_Driver/Src/stm32f1xx_hal_cortex.o
 .text.HAL_NVIC_GetPriorityGrouping
                0x0000000000000000        0xe ./build/./bsp/stm32/libraries/STM32F1xx_HAL/STM32F1xx_HAL_Driver/Src/stm32f1xx_hal_cortex.o
 .text.HAL_NVIC_GetPriority
                0x0000000000000000       0x2c ./build/./bsp/stm32/libraries/STM32F1xx_HAL/STM32F1xx_HAL_Driver/Src/stm32f1xx_hal_cortex.o
 .text.HAL_NVIC_SetPendingIRQ
                0x0000000000000000       0x1c ./build/./bsp/stm32/libraries/STM32F1xx_HAL/STM32F1xx_HAL_Driver/Src/stm32f1xx_hal_cortex.o
 .text.HAL_NVIC_GetPendingIRQ
                0x0000000000000000       0x1e ./build/./bsp/stm32/libraries/STM32F1xx_HAL/STM32F1xx_HAL_Driver/Src/stm32f1xx_hal_cortex.o
 .text.HAL_NVIC_ClearPendingIRQ
                0x0000000000000000       0x1c ./build/./bsp/stm32/libraries/STM32F1xx_HAL/STM32F1xx_HAL_Driver/Src/stm32f1xx_hal_cortex.o
 .text.HAL_NVIC_GetActive
                0x0000000000000000       0x1e ./build/./bsp/stm32/libraries/STM32F1xx_HAL/STM32F1xx_HAL_Driver/Src/stm32f1xx_hal_cortex.o
 .text.HAL_SYSTICK_IRQHandler
                0x0000000000000000        0xc ./build/./bsp/stm32/libraries/STM32F1xx_HAL/STM32F1xx_HAL_Driver/Src/stm32f1xx_hal_cortex.o
 .text.HAL_SYSTICK_Callback
                0x0000000000000000        0xc ./build/./bsp/stm32/libraries/STM32F1xx_HAL/STM32F1xx_HAL_Driver/Src/stm32f1xx_hal_cortex.o
 .text          0x0000000000000000        0x0 ./build/./bsp/stm32/libraries/STM32F1xx_HAL/STM32F1xx_HAL_Driver/Src/stm32f1xx_hal_crc.o
 .data          0x0000000000000000        0x0 ./build/./bsp/stm32/libraries/STM32F1xx_HAL/STM32F1xx_HAL_Driver/Src/stm32f1xx_hal_crc.o
 .bss           0x0000000000000000        0x0 ./build/./bsp/stm32/libraries/STM32F1xx_HAL/STM32F1xx_HAL_Driver/Src/stm32f1xx_hal_crc.o
 .debug_info    0x0000000000000000      0x1ff ./build/./bsp/stm32/libraries/STM32F1xx_HAL/STM32F1xx_HAL_Driver/Src/stm32f1xx_hal_crc.o
 .debug_abbrev  0x0000000000000000       0xcd ./build/./bsp/stm32/libraries/STM32F1xx_HAL/STM32F1xx_HAL_Driver/Src/stm32f1xx_hal_crc.o
 .debug_aranges
                0x0000000000000000       0x18 ./build/./bsp/stm32/libraries/STM32F1xx_HAL/STM32F1xx_HAL_Driver/Src/stm32f1xx_hal_crc.o
 .debug_line    0x0000000000000000      0x1a9 ./build/./bsp/stm32/libraries/STM32F1xx_HAL/STM32F1xx_HAL_Driver/Src/stm32f1xx_hal_crc.o
 .debug_str     0x0000000000000000      0x2c0 ./build/./bsp/stm32/libraries/STM32F1xx_HAL/STM32F1xx_HAL_Driver/Src/stm32f1xx_hal_crc.o
 .comment       0x0000000000000000       0x32 ./build/./bsp/stm32/libraries/STM32F1xx_HAL/STM32F1xx_HAL_Driver/Src/stm32f1xx_hal_crc.o
 .ARM.attributes
                0x0000000000000000       0x33 ./build/./bsp/stm32/libraries/STM32F1xx_HAL/STM32F1xx_HAL_Driver/Src/stm32f1xx_hal_crc.o
 .text          0x0000000000000000        0x0 ./build/./bsp/stm32/libraries/STM32F1xx_HAL/STM32F1xx_HAL_Driver/Src/stm32f1xx_hal_dma.o
 .data          0x0000000000000000        0x0 ./build/./bsp/stm32/libraries/STM32F1xx_HAL/STM32F1xx_HAL_Driver/Src/stm32f1xx_hal_dma.o
 .bss           0x0000000000000000        0x0 ./build/./bsp/stm32/libraries/STM32F1xx_HAL/STM32F1xx_HAL_Driver/Src/stm32f1xx_hal_dma.o
 .text.HAL_DMA_Start
                0x0000000000000000       0x84 ./build/./bsp/stm32/libraries/STM32F1xx_HAL/STM32F1xx_HAL_Driver/Src/stm32f1xx_hal_dma.o
 .text.HAL_DMA_PollForTransfer
                0x0000000000000000      0x360 ./build/./bsp/stm32/libraries/STM32F1xx_HAL/STM32F1xx_HAL_Driver/Src/stm32f1xx_hal_dma.o
 .text.HAL_DMA_RegisterCallback
                0x0000000000000000       0x90 ./build/./bsp/stm32/libraries/STM32F1xx_HAL/STM32F1xx_HAL_Driver/Src/stm32f1xx_hal_dma.o
 .text.HAL_DMA_UnRegisterCallback
                0x0000000000000000       0xac ./build/./bsp/stm32/libraries/STM32F1xx_HAL/STM32F1xx_HAL_Driver/Src/stm32f1xx_hal_dma.o
 .text.HAL_DMA_GetState
                0x0000000000000000       0x18 ./build/./bsp/stm32/libraries/STM32F1xx_HAL/STM32F1xx_HAL_Driver/Src/stm32f1xx_hal_dma.o
 .text.HAL_DMA_GetError
                0x0000000000000000       0x16 ./build/./bsp/stm32/libraries/STM32F1xx_HAL/STM32F1xx_HAL_Driver/Src/stm32f1xx_hal_dma.o
 .text          0x0000000000000000        0x0 ./build/./bsp/stm32/libraries/STM32F1xx_HAL/STM32F1xx_HAL_Driver/Src/stm32f1xx_hal_gpio.o
 .data          0x0000000000000000        0x0 ./build/./bsp/stm32/libraries/STM32F1xx_HAL/STM32F1xx_HAL_Driver/Src/stm32f1xx_hal_gpio.o
 .bss           0x0000000000000000        0x0 ./build/./bsp/stm32/libraries/STM32F1xx_HAL/STM32F1xx_HAL_Driver/Src/stm32f1xx_hal_gpio.o
 .text.HAL_GPIO_TogglePin
                0x0000000000000000       0x30 ./build/./bsp/stm32/libraries/STM32F1xx_HAL/STM32F1xx_HAL_Driver/Src/stm32f1xx_hal_gpio.o
 .text.HAL_GPIO_LockPin
                0x0000000000000000       0x4e ./build/./bsp/stm32/libraries/STM32F1xx_HAL/STM32F1xx_HAL_Driver/Src/stm32f1xx_hal_gpio.o
 .text.HAL_GPIO_EXTI_Callback
                0x0000000000000000       0x14 ./build/./bsp/stm32/libraries/STM32F1xx_HAL/STM32F1xx_HAL_Driver/Src/stm32f1xx_hal_gpio.o
 .text          0x0000000000000000        0x0 ./build/./bsp/stm32/libraries/STM32F1xx_HAL/STM32F1xx_HAL_Driver/Src/stm32f1xx_hal_gpio_ex.o
 .data          0x0000000000000000        0x0 ./build/./bsp/stm32/libraries/STM32F1xx_HAL/STM32F1xx_HAL_Driver/Src/stm32f1xx_hal_gpio_ex.o
 .bss           0x0000000000000000        0x0 ./build/./bsp/stm32/libraries/STM32F1xx_HAL/STM32F1xx_HAL_Driver/Src/stm32f1xx_hal_gpio_ex.o
 .text.HAL_GPIOEx_ConfigEventout
                0x0000000000000000       0x2c ./build/./bsp/stm32/libraries/STM32F1xx_HAL/STM32F1xx_HAL_Driver/Src/stm32f1xx_hal_gpio_ex.o
 .text.HAL_GPIOEx_EnableEventout
                0x0000000000000000       0x1c ./build/./bsp/stm32/libraries/STM32F1xx_HAL/STM32F1xx_HAL_Driver/Src/stm32f1xx_hal_gpio_ex.o
 .text.HAL_GPIOEx_DisableEventout
                0x0000000000000000       0x1c ./build/./bsp/stm32/libraries/STM32F1xx_HAL/STM32F1xx_HAL_Driver/Src/stm32f1xx_hal_gpio_ex.o
 .debug_info    0x0000000000000000      0x2e5 ./build/./bsp/stm32/libraries/STM32F1xx_HAL/STM32F1xx_HAL_Driver/Src/stm32f1xx_hal_gpio_ex.o
 .debug_abbrev  0x0000000000000000      0x13b ./build/./bsp/stm32/libraries/STM32F1xx_HAL/STM32F1xx_HAL_Driver/Src/stm32f1xx_hal_gpio_ex.o
 .debug_loc     0x0000000000000000       0xe4 ./build/./bsp/stm32/libraries/STM32F1xx_HAL/STM32F1xx_HAL_Driver/Src/stm32f1xx_hal_gpio_ex.o
 .debug_aranges
                0x0000000000000000       0x30 ./build/./bsp/stm32/libraries/STM32F1xx_HAL/STM32F1xx_HAL_Driver/Src/stm32f1xx_hal_gpio_ex.o
 .debug_ranges  0x0000000000000000       0x20 ./build/./bsp/stm32/libraries/STM32F1xx_HAL/STM32F1xx_HAL_Driver/Src/stm32f1xx_hal_gpio_ex.o
 .debug_line    0x0000000000000000      0x24f ./build/./bsp/stm32/libraries/STM32F1xx_HAL/STM32F1xx_HAL_Driver/Src/stm32f1xx_hal_gpio_ex.o
 .debug_str     0x0000000000000000      0x360 ./build/./bsp/stm32/libraries/STM32F1xx_HAL/STM32F1xx_HAL_Driver/Src/stm32f1xx_hal_gpio_ex.o
 .comment       0x0000000000000000       0x32 ./build/./bsp/stm32/libraries/STM32F1xx_HAL/STM32F1xx_HAL_Driver/Src/stm32f1xx_hal_gpio_ex.o
 .debug_frame   0x0000000000000000       0x78 ./build/./bsp/stm32/libraries/STM32F1xx_HAL/STM32F1xx_HAL_Driver/Src/stm32f1xx_hal_gpio_ex.o
 .ARM.attributes
                0x0000000000000000       0x33 ./build/./bsp/stm32/libraries/STM32F1xx_HAL/STM32F1xx_HAL_Driver/Src/stm32f1xx_hal_gpio_ex.o
 .text          0x0000000000000000        0x0 ./build/./bsp/stm32/libraries/STM32F1xx_HAL/STM32F1xx_HAL_Driver/Src/stm32f1xx_hal_pwr.o
 .data          0x0000000000000000        0x0 ./build/./bsp/stm32/libraries/STM32F1xx_HAL/STM32F1xx_HAL_Driver/Src/stm32f1xx_hal_pwr.o
 .bss           0x0000000000000000        0x0 ./build/./bsp/stm32/libraries/STM32F1xx_HAL/STM32F1xx_HAL_Driver/Src/stm32f1xx_hal_pwr.o
 .text.PWR_OverloadWfe
                0x0000000000000000       0x10 ./build/./bsp/stm32/libraries/STM32F1xx_HAL/STM32F1xx_HAL_Driver/Src/stm32f1xx_hal_pwr.o
 .text.HAL_PWR_DeInit
                0x0000000000000000       0x28 ./build/./bsp/stm32/libraries/STM32F1xx_HAL/STM32F1xx_HAL_Driver/Src/stm32f1xx_hal_pwr.o
 .text.HAL_PWR_EnableBkUpAccess
                0x0000000000000000       0x18 ./build/./bsp/stm32/libraries/STM32F1xx_HAL/STM32F1xx_HAL_Driver/Src/stm32f1xx_hal_pwr.o
 .text.HAL_PWR_DisableBkUpAccess
                0x0000000000000000       0x18 ./build/./bsp/stm32/libraries/STM32F1xx_HAL/STM32F1xx_HAL_Driver/Src/stm32f1xx_hal_pwr.o
 .text.HAL_PWR_ConfigPVD
                0x0000000000000000       0xbc ./build/./bsp/stm32/libraries/STM32F1xx_HAL/STM32F1xx_HAL_Driver/Src/stm32f1xx_hal_pwr.o
 .text.HAL_PWR_EnablePVD
                0x0000000000000000       0x18 ./build/./bsp/stm32/libraries/STM32F1xx_HAL/STM32F1xx_HAL_Driver/Src/stm32f1xx_hal_pwr.o
 .text.HAL_PWR_DisablePVD
                0x0000000000000000       0x18 ./build/./bsp/stm32/libraries/STM32F1xx_HAL/STM32F1xx_HAL_Driver/Src/stm32f1xx_hal_pwr.o
 .text.HAL_PWR_EnableWakeUpPin
                0x0000000000000000       0x38 ./build/./bsp/stm32/libraries/STM32F1xx_HAL/STM32F1xx_HAL_Driver/Src/stm32f1xx_hal_pwr.o
 .text.HAL_PWR_DisableWakeUpPin
                0x0000000000000000       0x38 ./build/./bsp/stm32/libraries/STM32F1xx_HAL/STM32F1xx_HAL_Driver/Src/stm32f1xx_hal_pwr.o
 .text.HAL_PWR_EnterSLEEPMode
                0x0000000000000000       0x38 ./build/./bsp/stm32/libraries/STM32F1xx_HAL/STM32F1xx_HAL_Driver/Src/stm32f1xx_hal_pwr.o
 .text.HAL_PWR_EnterSTOPMode
                0x0000000000000000       0x64 ./build/./bsp/stm32/libraries/STM32F1xx_HAL/STM32F1xx_HAL_Driver/Src/stm32f1xx_hal_pwr.o
 .text.HAL_PWR_EnterSTANDBYMode
                0x0000000000000000       0x30 ./build/./bsp/stm32/libraries/STM32F1xx_HAL/STM32F1xx_HAL_Driver/Src/stm32f1xx_hal_pwr.o
 .text.HAL_PWR_EnableSleepOnExit
                0x0000000000000000       0x1c ./build/./bsp/stm32/libraries/STM32F1xx_HAL/STM32F1xx_HAL_Driver/Src/stm32f1xx_hal_pwr.o
 .text.HAL_PWR_DisableSleepOnExit
                0x0000000000000000       0x1c ./build/./bsp/stm32/libraries/STM32F1xx_HAL/STM32F1xx_HAL_Driver/Src/stm32f1xx_hal_pwr.o
 .text.HAL_PWR_EnableSEVOnPend
                0x0000000000000000       0x1c ./build/./bsp/stm32/libraries/STM32F1xx_HAL/STM32F1xx_HAL_Driver/Src/stm32f1xx_hal_pwr.o
 .text.HAL_PWR_DisableSEVOnPend
                0x0000000000000000       0x1c ./build/./bsp/stm32/libraries/STM32F1xx_HAL/STM32F1xx_HAL_Driver/Src/stm32f1xx_hal_pwr.o
 .text.HAL_PWR_PVD_IRQHandler
                0x0000000000000000       0x24 ./build/./bsp/stm32/libraries/STM32F1xx_HAL/STM32F1xx_HAL_Driver/Src/stm32f1xx_hal_pwr.o
 .text.HAL_PWR_PVDCallback
                0x0000000000000000        0xc ./build/./bsp/stm32/libraries/STM32F1xx_HAL/STM32F1xx_HAL_Driver/Src/stm32f1xx_hal_pwr.o
 .debug_info    0x0000000000000000      0x82c ./build/./bsp/stm32/libraries/STM32F1xx_HAL/STM32F1xx_HAL_Driver/Src/stm32f1xx_hal_pwr.o
 .debug_abbrev  0x0000000000000000      0x217 ./build/./bsp/stm32/libraries/STM32F1xx_HAL/STM32F1xx_HAL_Driver/Src/stm32f1xx_hal_pwr.o
 .debug_loc     0x0000000000000000      0x51c ./build/./bsp/stm32/libraries/STM32F1xx_HAL/STM32F1xx_HAL_Driver/Src/stm32f1xx_hal_pwr.o
 .debug_aranges
                0x0000000000000000       0xa8 ./build/./bsp/stm32/libraries/STM32F1xx_HAL/STM32F1xx_HAL_Driver/Src/stm32f1xx_hal_pwr.o
 .debug_ranges  0x0000000000000000       0x98 ./build/./bsp/stm32/libraries/STM32F1xx_HAL/STM32F1xx_HAL_Driver/Src/stm32f1xx_hal_pwr.o
 .debug_line    0x0000000000000000      0x3cd ./build/./bsp/stm32/libraries/STM32F1xx_HAL/STM32F1xx_HAL_Driver/Src/stm32f1xx_hal_pwr.o
 .debug_str     0x0000000000000000      0x592 ./build/./bsp/stm32/libraries/STM32F1xx_HAL/STM32F1xx_HAL_Driver/Src/stm32f1xx_hal_pwr.o
 .comment       0x0000000000000000       0x32 ./build/./bsp/stm32/libraries/STM32F1xx_HAL/STM32F1xx_HAL_Driver/Src/stm32f1xx_hal_pwr.o
 .debug_frame   0x0000000000000000      0x270 ./build/./bsp/stm32/libraries/STM32F1xx_HAL/STM32F1xx_HAL_Driver/Src/stm32f1xx_hal_pwr.o
 .ARM.attributes
                0x0000000000000000       0x33 ./build/./bsp/stm32/libraries/STM32F1xx_HAL/STM32F1xx_HAL_Driver/Src/stm32f1xx_hal_pwr.o
 .text          0x0000000000000000        0x0 ./build/./bsp/stm32/libraries/STM32F1xx_HAL/STM32F1xx_HAL_Driver/Src/stm32f1xx_hal_rcc.o
 .data          0x0000000000000000        0x0 ./build/./bsp/stm32/libraries/STM32F1xx_HAL/STM32F1xx_HAL_Driver/Src/stm32f1xx_hal_rcc.o
 .bss           0x0000000000000000        0x0 ./build/./bsp/stm32/libraries/STM32F1xx_HAL/STM32F1xx_HAL_Driver/Src/stm32f1xx_hal_rcc.o
 .text.HAL_RCC_DeInit
                0x0000000000000000      0x134 ./build/./bsp/stm32/libraries/STM32F1xx_HAL/STM32F1xx_HAL_Driver/Src/stm32f1xx_hal_rcc.o
 .text.HAL_RCC_MCOConfig
                0x0000000000000000       0x70 ./build/./bsp/stm32/libraries/STM32F1xx_HAL/STM32F1xx_HAL_Driver/Src/stm32f1xx_hal_rcc.o
 .text.HAL_RCC_EnableCSS
                0x0000000000000000       0x18 ./build/./bsp/stm32/libraries/STM32F1xx_HAL/STM32F1xx_HAL_Driver/Src/stm32f1xx_hal_rcc.o
 .text.HAL_RCC_DisableCSS
                0x0000000000000000       0x18 ./build/./bsp/stm32/libraries/STM32F1xx_HAL/STM32F1xx_HAL_Driver/Src/stm32f1xx_hal_rcc.o
 .text.HAL_RCC_GetOscConfig
                0x0000000000000000      0x104 ./build/./bsp/stm32/libraries/STM32F1xx_HAL/STM32F1xx_HAL_Driver/Src/stm32f1xx_hal_rcc.o
 .text.HAL_RCC_GetClockConfig
                0x0000000000000000       0x60 ./build/./bsp/stm32/libraries/STM32F1xx_HAL/STM32F1xx_HAL_Driver/Src/stm32f1xx_hal_rcc.o
 .text.HAL_RCC_NMI_IRQHandler
                0x0000000000000000       0x28 ./build/./bsp/stm32/libraries/STM32F1xx_HAL/STM32F1xx_HAL_Driver/Src/stm32f1xx_hal_rcc.o
 .text.HAL_RCC_CSSCallback
                0x0000000000000000        0xc ./build/./bsp/stm32/libraries/STM32F1xx_HAL/STM32F1xx_HAL_Driver/Src/stm32f1xx_hal_rcc.o
 .text          0x0000000000000000        0x0 ./build/./bsp/stm32/libraries/STM32F1xx_HAL/STM32F1xx_HAL_Driver/Src/stm32f1xx_hal_rcc_ex.o
 .data          0x0000000000000000        0x0 ./build/./bsp/stm32/libraries/STM32F1xx_HAL/STM32F1xx_HAL_Driver/Src/stm32f1xx_hal_rcc_ex.o
 .bss           0x0000000000000000        0x0 ./build/./bsp/stm32/libraries/STM32F1xx_HAL/STM32F1xx_HAL_Driver/Src/stm32f1xx_hal_rcc_ex.o
 .text.HAL_RCCEx_PeriphCLKConfig
                0x0000000000000000      0x16c ./build/./bsp/stm32/libraries/STM32F1xx_HAL/STM32F1xx_HAL_Driver/Src/stm32f1xx_hal_rcc_ex.o
 .text.HAL_RCCEx_GetPeriphCLKConfig
                0x0000000000000000       0x60 ./build/./bsp/stm32/libraries/STM32F1xx_HAL/STM32F1xx_HAL_Driver/Src/stm32f1xx_hal_rcc_ex.o
 .rodata        0x0000000000000000       0x12 ./build/./bsp/stm32/libraries/STM32F1xx_HAL/STM32F1xx_HAL_Driver/Src/stm32f1xx_hal_rcc_ex.o
 .text.HAL_RCCEx_GetPeriphCLKFreq
                0x0000000000000000      0x178 ./build/./bsp/stm32/libraries/STM32F1xx_HAL/STM32F1xx_HAL_Driver/Src/stm32f1xx_hal_rcc_ex.o
 .debug_info    0x0000000000000000      0x50f ./build/./bsp/stm32/libraries/STM32F1xx_HAL/STM32F1xx_HAL_Driver/Src/stm32f1xx_hal_rcc_ex.o
 .debug_abbrev  0x0000000000000000      0x1a9 ./build/./bsp/stm32/libraries/STM32F1xx_HAL/STM32F1xx_HAL_Driver/Src/stm32f1xx_hal_rcc_ex.o
 .debug_loc     0x0000000000000000       0xfe ./build/./bsp/stm32/libraries/STM32F1xx_HAL/STM32F1xx_HAL_Driver/Src/stm32f1xx_hal_rcc_ex.o
 .debug_aranges
                0x0000000000000000       0x30 ./build/./bsp/stm32/libraries/STM32F1xx_HAL/STM32F1xx_HAL_Driver/Src/stm32f1xx_hal_rcc_ex.o
 .debug_ranges  0x0000000000000000       0x20 ./build/./bsp/stm32/libraries/STM32F1xx_HAL/STM32F1xx_HAL_Driver/Src/stm32f1xx_hal_rcc_ex.o
 .debug_line    0x0000000000000000      0x313 ./build/./bsp/stm32/libraries/STM32F1xx_HAL/STM32F1xx_HAL_Driver/Src/stm32f1xx_hal_rcc_ex.o
 .debug_str     0x0000000000000000      0x4a9 ./build/./bsp/stm32/libraries/STM32F1xx_HAL/STM32F1xx_HAL_Driver/Src/stm32f1xx_hal_rcc_ex.o
 .comment       0x0000000000000000       0x32 ./build/./bsp/stm32/libraries/STM32F1xx_HAL/STM32F1xx_HAL_Driver/Src/stm32f1xx_hal_rcc_ex.o
 .debug_frame   0x0000000000000000       0x84 ./build/./bsp/stm32/libraries/STM32F1xx_HAL/STM32F1xx_HAL_Driver/Src/stm32f1xx_hal_rcc_ex.o
 .ARM.attributes
                0x0000000000000000       0x33 ./build/./bsp/stm32/libraries/STM32F1xx_HAL/STM32F1xx_HAL_Driver/Src/stm32f1xx_hal_rcc_ex.o
 .text          0x0000000000000000        0x0 ./build/./bsp/stm32/libraries/STM32F1xx_HAL/STM32F1xx_HAL_Driver/Src/stm32f1xx_hal_uart.o
 .data          0x0000000000000000        0x0 ./build/./bsp/stm32/libraries/STM32F1xx_HAL/STM32F1xx_HAL_Driver/Src/stm32f1xx_hal_uart.o
 .bss           0x0000000000000000        0x0 ./build/./bsp/stm32/libraries/STM32F1xx_HAL/STM32F1xx_HAL_Driver/Src/stm32f1xx_hal_uart.o
 .text.HAL_HalfDuplex_Init
                0x0000000000000000       0xaa ./build/./bsp/stm32/libraries/STM32F1xx_HAL/STM32F1xx_HAL_Driver/Src/stm32f1xx_hal_uart.o
 .text.HAL_LIN_Init
                0x0000000000000000       0xcc ./build/./bsp/stm32/libraries/STM32F1xx_HAL/STM32F1xx_HAL_Driver/Src/stm32f1xx_hal_uart.o
 .text.HAL_MultiProcessor_Init
                0x0000000000000000       0xe0 ./build/./bsp/stm32/libraries/STM32F1xx_HAL/STM32F1xx_HAL_Driver/Src/stm32f1xx_hal_uart.o
 .text.HAL_UART_MspInit
                0x0000000000000000       0x12 ./build/./bsp/stm32/libraries/STM32F1xx_HAL/STM32F1xx_HAL_Driver/Src/stm32f1xx_hal_uart.o
 .text.HAL_UART_MspDeInit
                0x0000000000000000       0x12 ./build/./bsp/stm32/libraries/STM32F1xx_HAL/STM32F1xx_HAL_Driver/Src/stm32f1xx_hal_uart.o
 .text.HAL_UART_Transmit
                0x0000000000000000      0x130 ./build/./bsp/stm32/libraries/STM32F1xx_HAL/STM32F1xx_HAL_Driver/Src/stm32f1xx_hal_uart.o
 .text.HAL_UART_Receive
                0x0000000000000000      0x14c ./build/./bsp/stm32/libraries/STM32F1xx_HAL/STM32F1xx_HAL_Driver/Src/stm32f1xx_hal_uart.o
 .text.HAL_UART_Transmit_IT
                0x0000000000000000       0x88 ./build/./bsp/stm32/libraries/STM32F1xx_HAL/STM32F1xx_HAL_Driver/Src/stm32f1xx_hal_uart.o
 .text.HAL_UART_Receive_IT
                0x0000000000000000       0xa8 ./build/./bsp/stm32/libraries/STM32F1xx_HAL/STM32F1xx_HAL_Driver/Src/stm32f1xx_hal_uart.o
 .text.HAL_UART_DMAPause
                0x0000000000000000       0xc6 ./build/./bsp/stm32/libraries/STM32F1xx_HAL/STM32F1xx_HAL_Driver/Src/stm32f1xx_hal_uart.o
 .text.HAL_UART_DMAResume
                0x0000000000000000       0xa0 ./build/./bsp/stm32/libraries/STM32F1xx_HAL/STM32F1xx_HAL_Driver/Src/stm32f1xx_hal_uart.o
 .text.HAL_UART_DMAStop
                0x0000000000000000       0xb6 ./build/./bsp/stm32/libraries/STM32F1xx_HAL/STM32F1xx_HAL_Driver/Src/stm32f1xx_hal_uart.o
 .text.HAL_UART_Abort
                0x0000000000000000      0x104 ./build/./bsp/stm32/libraries/STM32F1xx_HAL/STM32F1xx_HAL_Driver/Src/stm32f1xx_hal_uart.o
 .text.HAL_UART_AbortTransmit
                0x0000000000000000       0x88 ./build/./bsp/stm32/libraries/STM32F1xx_HAL/STM32F1xx_HAL_Driver/Src/stm32f1xx_hal_uart.o
 .text.HAL_UART_AbortReceive
                0x0000000000000000       0x98 ./build/./bsp/stm32/libraries/STM32F1xx_HAL/STM32F1xx_HAL_Driver/Src/stm32f1xx_hal_uart.o
 .text.HAL_UART_Abort_IT
                0x0000000000000000      0x148 ./build/./bsp/stm32/libraries/STM32F1xx_HAL/STM32F1xx_HAL_Driver/Src/stm32f1xx_hal_uart.o
 .text.HAL_UART_AbortTransmit_IT
                0x0000000000000000       0xa0 ./build/./bsp/stm32/libraries/STM32F1xx_HAL/STM32F1xx_HAL_Driver/Src/stm32f1xx_hal_uart.o
 .text.HAL_UART_AbortReceive_IT
                0x0000000000000000       0xb0 ./build/./bsp/stm32/libraries/STM32F1xx_HAL/STM32F1xx_HAL_Driver/Src/stm32f1xx_hal_uart.o
 .text.HAL_UART_TxCpltCallback
                0x0000000000000000       0x12 ./build/./bsp/stm32/libraries/STM32F1xx_HAL/STM32F1xx_HAL_Driver/Src/stm32f1xx_hal_uart.o
 .text.HAL_UART_RxCpltCallback
                0x0000000000000000       0x12 ./build/./bsp/stm32/libraries/STM32F1xx_HAL/STM32F1xx_HAL_Driver/Src/stm32f1xx_hal_uart.o
 .text.HAL_UART_RxHalfCpltCallback
                0x0000000000000000       0x12 ./build/./bsp/stm32/libraries/STM32F1xx_HAL/STM32F1xx_HAL_Driver/Src/stm32f1xx_hal_uart.o
 .text.HAL_UART_ErrorCallback
                0x0000000000000000       0x12 ./build/./bsp/stm32/libraries/STM32F1xx_HAL/STM32F1xx_HAL_Driver/Src/stm32f1xx_hal_uart.o
 .text.HAL_UART_AbortCpltCallback
                0x0000000000000000       0x12 ./build/./bsp/stm32/libraries/STM32F1xx_HAL/STM32F1xx_HAL_Driver/Src/stm32f1xx_hal_uart.o
 .text.HAL_UART_AbortTransmitCpltCallback
                0x0000000000000000       0x12 ./build/./bsp/stm32/libraries/STM32F1xx_HAL/STM32F1xx_HAL_Driver/Src/stm32f1xx_hal_uart.o
 .text.HAL_UART_AbortReceiveCpltCallback
                0x0000000000000000       0x12 ./build/./bsp/stm32/libraries/STM32F1xx_HAL/STM32F1xx_HAL_Driver/Src/stm32f1xx_hal_uart.o
 .text.HAL_LIN_SendBreak
                0x0000000000000000       0x52 ./build/./bsp/stm32/libraries/STM32F1xx_HAL/STM32F1xx_HAL_Driver/Src/stm32f1xx_hal_uart.o
 .text.HAL_MultiProcessor_EnterMuteMode
                0x0000000000000000       0x52 ./build/./bsp/stm32/libraries/STM32F1xx_HAL/STM32F1xx_HAL_Driver/Src/stm32f1xx_hal_uart.o
 .text.HAL_MultiProcessor_ExitMuteMode
                0x0000000000000000       0x52 ./build/./bsp/stm32/libraries/STM32F1xx_HAL/STM32F1xx_HAL_Driver/Src/stm32f1xx_hal_uart.o
 .text.HAL_HalfDuplex_EnableTransmitter
                0x0000000000000000       0x66 ./build/./bsp/stm32/libraries/STM32F1xx_HAL/STM32F1xx_HAL_Driver/Src/stm32f1xx_hal_uart.o
 .text.HAL_HalfDuplex_EnableReceiver
                0x0000000000000000       0x66 ./build/./bsp/stm32/libraries/STM32F1xx_HAL/STM32F1xx_HAL_Driver/Src/stm32f1xx_hal_uart.o
 .text.HAL_UART_GetState
                0x0000000000000000       0x3a ./build/./bsp/stm32/libraries/STM32F1xx_HAL/STM32F1xx_HAL_Driver/Src/stm32f1xx_hal_uart.o
 .text.HAL_UART_GetError
                0x0000000000000000       0x16 ./build/./bsp/stm32/libraries/STM32F1xx_HAL/STM32F1xx_HAL_Driver/Src/stm32f1xx_hal_uart.o
 .text.UART_WaitOnFlagUntilTimeout
                0x0000000000000000       0x94 ./build/./bsp/stm32/libraries/STM32F1xx_HAL/STM32F1xx_HAL_Driver/Src/stm32f1xx_hal_uart.o
 .text.UART_DMATxAbortCallback
                0x0000000000000000       0x5a ./build/./bsp/stm32/libraries/STM32F1xx_HAL/STM32F1xx_HAL_Driver/Src/stm32f1xx_hal_uart.o
 .text.UART_DMARxAbortCallback
                0x0000000000000000       0x5a ./build/./bsp/stm32/libraries/STM32F1xx_HAL/STM32F1xx_HAL_Driver/Src/stm32f1xx_hal_uart.o
 .text.UART_DMATxOnlyAbortCallback
                0x0000000000000000       0x2a ./build/./bsp/stm32/libraries/STM32F1xx_HAL/STM32F1xx_HAL_Driver/Src/stm32f1xx_hal_uart.o
 .text.UART_DMARxOnlyAbortCallback
                0x0000000000000000       0x2a ./build/./bsp/stm32/libraries/STM32F1xx_HAL/STM32F1xx_HAL_Driver/Src/stm32f1xx_hal_uart.o
 .text          0x0000000000000000        0x0 ./build/./bsp/stm32/libraries/STM32F1xx_HAL/STM32F1xx_HAL_Driver/Src/stm32f1xx_hal_usart.o
 .data          0x0000000000000000        0x0 ./build/./bsp/stm32/libraries/STM32F1xx_HAL/STM32F1xx_HAL_Driver/Src/stm32f1xx_hal_usart.o
 .bss           0x0000000000000000        0x0 ./build/./bsp/stm32/libraries/STM32F1xx_HAL/STM32F1xx_HAL_Driver/Src/stm32f1xx_hal_usart.o
 .debug_info    0x0000000000000000      0x1ff ./build/./bsp/stm32/libraries/STM32F1xx_HAL/STM32F1xx_HAL_Driver/Src/stm32f1xx_hal_usart.o
 .debug_abbrev  0x0000000000000000       0xcd ./build/./bsp/stm32/libraries/STM32F1xx_HAL/STM32F1xx_HAL_Driver/Src/stm32f1xx_hal_usart.o
 .debug_aranges
                0x0000000000000000       0x18 ./build/./bsp/stm32/libraries/STM32F1xx_HAL/STM32F1xx_HAL_Driver/Src/stm32f1xx_hal_usart.o
 .debug_line    0x0000000000000000      0x1a9 ./build/./bsp/stm32/libraries/STM32F1xx_HAL/STM32F1xx_HAL_Driver/Src/stm32f1xx_hal_usart.o
 .debug_str     0x0000000000000000      0x2c2 ./build/./bsp/stm32/libraries/STM32F1xx_HAL/STM32F1xx_HAL_Driver/Src/stm32f1xx_hal_usart.o
 .comment       0x0000000000000000       0x32 ./build/./bsp/stm32/libraries/STM32F1xx_HAL/STM32F1xx_HAL_Driver/Src/stm32f1xx_hal_usart.o
 .ARM.attributes
                0x0000000000000000       0x33 ./build/./bsp/stm32/libraries/STM32F1xx_HAL/STM32F1xx_HAL_Driver/Src/stm32f1xx_hal_usart.o
 .text          0x0000000000000000        0x0 ./build/bsp/applications/main.o
 .data          0x0000000000000000        0x0 ./build/bsp/applications/main.o
 .bss           0x0000000000000000        0x0 ./build/bsp/applications/main.o
 .text          0x0000000000000000        0x0 ./build/bsp/board/CubeMX_Config/Src/stm32f1xx_hal_msp.o
 .data          0x0000000000000000        0x0 ./build/bsp/board/CubeMX_Config/Src/stm32f1xx_hal_msp.o
 .bss           0x0000000000000000        0x0 ./build/bsp/board/CubeMX_Config/Src/stm32f1xx_hal_msp.o
 .text.HAL_ADC_MspInit
                0x0000000000000000       0x78 ./build/bsp/board/CubeMX_Config/Src/stm32f1xx_hal_msp.o
 .text.HAL_ADC_MspDeInit
                0x0000000000000000       0x3c ./build/bsp/board/CubeMX_Config/Src/stm32f1xx_hal_msp.o
 .text.HAL_SPI_MspInit
                0x0000000000000000       0x94 ./build/bsp/board/CubeMX_Config/Src/stm32f1xx_hal_msp.o
 .text.HAL_SPI_MspDeInit
                0x0000000000000000       0x3c ./build/bsp/board/CubeMX_Config/Src/stm32f1xx_hal_msp.o
 .text          0x0000000000000000        0x0 ./build/bsp/board/board.o
 .data          0x0000000000000000        0x0 ./build/bsp/board/board.o
 .bss           0x0000000000000000        0x0 ./build/bsp/board/board.o
 .text          0x0000000000000000        0x0 ./build/./components/drivers/misc/pin.o
 .data          0x0000000000000000        0x0 ./build/./components/drivers/misc/pin.o
 .bss           0x0000000000000000        0x0 ./build/./components/drivers/misc/pin.o
 .text.rt_pin_attach_irq
                0x0000000000000000       0x58 ./build/./components/drivers/misc/pin.o
 .text.rt_pin_detach_irq
                0x0000000000000000       0x4c ./build/./components/drivers/misc/pin.o
 .text.rt_pin_irq_enable
                0x0000000000000000       0x50 ./build/./components/drivers/misc/pin.o
 .rodata.__FUNCTION__.5787
                0x0000000000000000       0x12 ./build/./components/drivers/misc/pin.o
 .rodata.__FUNCTION__.5791
                0x0000000000000000       0x12 ./build/./components/drivers/misc/pin.o
 .rodata.__FUNCTION__.5796
                0x0000000000000000       0x12 ./build/./components/drivers/misc/pin.o
 .text          0x0000000000000000        0x0 ./build/./components/drivers/serial/serial.o
 .data          0x0000000000000000        0x0 ./build/./components/drivers/serial/serial.o
 .bss           0x0000000000000000        0x0 ./build/./components/drivers/serial/serial.o
 .text          0x0000000000000000        0x0 ./build/./components/drivers/src/completion.o
 .data          0x0000000000000000        0x0 ./build/./components/drivers/src/completion.o
 .bss           0x0000000000000000        0x0 ./build/./components/drivers/src/completion.o
 .text          0x0000000000000000        0x0 ./build/./components/drivers/src/dataqueue.o
 .data          0x0000000000000000        0x0 ./build/./components/drivers/src/dataqueue.o
 .bss           0x0000000000000000        0x0 ./build/./components/drivers/src/dataqueue.o
 .text          0x0000000000000000        0x0 ./build/./components/drivers/src/pipe.o
 .data          0x0000000000000000        0x0 ./build/./components/drivers/src/pipe.o
 .bss           0x0000000000000000        0x0 ./build/./components/drivers/src/pipe.o
 .text.rt_list_init
                0x0000000000000000       0x20 ./build/./components/drivers/src/pipe.o
 .rodata        0x0000000000000000       0x23 ./build/./components/drivers/src/pipe.o
 .text.rt_wqueue_init
                0x0000000000000000       0x38 ./build/./components/drivers/src/pipe.o
 .text.rt_pipe_open
                0x0000000000000000       0x6c ./build/./components/drivers/src/pipe.o
 .text.rt_pipe_close
                0x0000000000000000       0x52 ./build/./components/drivers/src/pipe.o
 .text.rt_pipe_read
                0x0000000000000000       0x94 ./build/./components/drivers/src/pipe.o
 .text.rt_pipe_write
                0x0000000000000000       0x94 ./build/./components/drivers/src/pipe.o
 .text.rt_pipe_control
                0x0000000000000000       0x18 ./build/./components/drivers/src/pipe.o
 .text.rt_pipe_create
                0x0000000000000000       0xec ./build/./components/drivers/src/pipe.o
 .text.rt_pipe_delete
                0x0000000000000000       0x7c ./build/./components/drivers/src/pipe.o
 .rodata.__FUNCTION__.5646
                0x0000000000000000        0xf ./build/./components/drivers/src/pipe.o
 .rodata.__FUNCTION__.5375
                0x0000000000000000        0xf ./build/./components/drivers/src/pipe.o
 .debug_info    0x0000000000000000      0xbff ./build/./components/drivers/src/pipe.o
 .debug_abbrev  0x0000000000000000      0x220 ./build/./components/drivers/src/pipe.o
 .debug_loc     0x0000000000000000      0x2e8 ./build/./components/drivers/src/pipe.o
 .debug_aranges
                0x0000000000000000       0x60 ./build/./components/drivers/src/pipe.o
 .debug_ranges  0x0000000000000000       0x80 ./build/./components/drivers/src/pipe.o
 .debug_line    0x0000000000000000      0x263 ./build/./components/drivers/src/pipe.o
 .debug_str     0x0000000000000000      0x7c0 ./build/./components/drivers/src/pipe.o
 .comment       0x0000000000000000       0x32 ./build/./components/drivers/src/pipe.o
 .debug_frame   0x0000000000000000      0x15c ./build/./components/drivers/src/pipe.o
 .ARM.attributes
                0x0000000000000000       0x33 ./build/./components/drivers/src/pipe.o
 .text          0x0000000000000000        0x0 ./build/./components/drivers/src/ringblk_buf.o
 .data          0x0000000000000000        0x0 ./build/./components/drivers/src/ringblk_buf.o
 .bss           0x0000000000000000        0x0 ./build/./components/drivers/src/ringblk_buf.o
 .text.rt_slist_init
                0x0000000000000000       0x18 ./build/./components/drivers/src/ringblk_buf.o
 .text.rt_slist_append
                0x0000000000000000       0x34 ./build/./components/drivers/src/ringblk_buf.o
 .text.rt_slist_len
                0x0000000000000000       0x32 ./build/./components/drivers/src/ringblk_buf.o
 .text.rt_slist_remove
                0x0000000000000000       0x46 ./build/./components/drivers/src/ringblk_buf.o
 .text.rt_slist_first
                0x0000000000000000       0x16 ./build/./components/drivers/src/ringblk_buf.o
 .text.rt_slist_tail
                0x0000000000000000       0x24 ./build/./components/drivers/src/ringblk_buf.o
 .text.rt_slist_next
                0x0000000000000000       0x16 ./build/./components/drivers/src/ringblk_buf.o
 .text.rt_slist_isempty
                0x0000000000000000       0x20 ./build/./components/drivers/src/ringblk_buf.o
 .rodata        0x0000000000000000       0x86 ./build/./components/drivers/src/ringblk_buf.o
 .text.rt_rbb_init
                0x0000000000000000       0xa0 ./build/./components/drivers/src/ringblk_buf.o
 .text.rt_rbb_create
                0x0000000000000000       0x7a ./build/./components/drivers/src/ringblk_buf.o
 .text.rt_rbb_destroy
                0x0000000000000000       0x44 ./build/./components/drivers/src/ringblk_buf.o
 .text.find_empty_blk_in_set
                0x0000000000000000       0x68 ./build/./components/drivers/src/ringblk_buf.o
 .text.rt_rbb_blk_alloc
                0x0000000000000000      0x200 ./build/./components/drivers/src/ringblk_buf.o
 .text.rt_rbb_blk_put
                0x0000000000000000       0x44 ./build/./components/drivers/src/ringblk_buf.o
 .text.rt_rbb_blk_get
                0x0000000000000000       0x88 ./build/./components/drivers/src/ringblk_buf.o
 .text.rt_rbb_blk_size
                0x0000000000000000       0x34 ./build/./components/drivers/src/ringblk_buf.o
 .text.rt_rbb_blk_buf
                0x0000000000000000       0x30 ./build/./components/drivers/src/ringblk_buf.o
 .text.rt_rbb_blk_free
                0x0000000000000000       0x80 ./build/./components/drivers/src/ringblk_buf.o
 .text.rt_rbb_blk_queue_get
                0x0000000000000000      0x118 ./build/./components/drivers/src/ringblk_buf.o
 .text.rt_rbb_blk_queue_len
                0x0000000000000000       0x64 ./build/./components/drivers/src/ringblk_buf.o
 .text.rt_rbb_blk_queue_buf
                0x0000000000000000       0x30 ./build/./components/drivers/src/ringblk_buf.o
 .text.rt_rbb_blk_queue_free
                0x0000000000000000       0x70 ./build/./components/drivers/src/ringblk_buf.o
 .text.rt_rbb_next_blk_queue_len
                0x0000000000000000       0xb8 ./build/./components/drivers/src/ringblk_buf.o
 .text.rt_rbb_get_buf_size
                0x0000000000000000       0x30 ./build/./components/drivers/src/ringblk_buf.o
 .rodata.__FUNCTION__.5606
                0x0000000000000000        0xc ./build/./components/drivers/src/ringblk_buf.o
 .rodata.__FUNCTION__.5620
                0x0000000000000000        0xf ./build/./components/drivers/src/ringblk_buf.o
 .rodata.__FUNCTION__.5625
                0x0000000000000000       0x16 ./build/./components/drivers/src/ringblk_buf.o
 .rodata.__FUNCTION__.5639
                0x0000000000000000       0x11 ./build/./components/drivers/src/ringblk_buf.o
 .rodata.__FUNCTION__.5643
                0x0000000000000000        0xf ./build/./components/drivers/src/ringblk_buf.o
 .rodata.__FUNCTION__.5650
                0x0000000000000000        0xf ./build/./components/drivers/src/ringblk_buf.o
 .rodata.__FUNCTION__.5658
                0x0000000000000000       0x10 ./build/./components/drivers/src/ringblk_buf.o
 .rodata.__FUNCTION__.5662
                0x0000000000000000        0xf ./build/./components/drivers/src/ringblk_buf.o
 .rodata.__FUNCTION__.5668
                0x0000000000000000       0x10 ./build/./components/drivers/src/ringblk_buf.o
 .rodata.__FUNCTION__.5679
                0x0000000000000000       0x15 ./build/./components/drivers/src/ringblk_buf.o
 .rodata.__FUNCTION__.5689
                0x0000000000000000       0x15 ./build/./components/drivers/src/ringblk_buf.o
 .rodata.__FUNCTION__.5696
                0x0000000000000000       0x15 ./build/./components/drivers/src/ringblk_buf.o
 .rodata.__FUNCTION__.5702
                0x0000000000000000       0x16 ./build/./components/drivers/src/ringblk_buf.o
 .rodata.__FUNCTION__.5714
                0x0000000000000000       0x1a ./build/./components/drivers/src/ringblk_buf.o
 .rodata.__FUNCTION__.5722
                0x0000000000000000       0x14 ./build/./components/drivers/src/ringblk_buf.o
 .debug_info    0x0000000000000000      0xae4 ./build/./components/drivers/src/ringblk_buf.o
 .debug_abbrev  0x0000000000000000      0x27d ./build/./components/drivers/src/ringblk_buf.o
 .debug_loc     0x0000000000000000      0x7e0 ./build/./components/drivers/src/ringblk_buf.o
 .debug_aranges
                0x0000000000000000       0xd8 ./build/./components/drivers/src/ringblk_buf.o
 .debug_ranges  0x0000000000000000       0xc8 ./build/./components/drivers/src/ringblk_buf.o
 .debug_line    0x0000000000000000      0x4c8 ./build/./components/drivers/src/ringblk_buf.o
 .debug_str     0x0000000000000000      0x51b ./build/./components/drivers/src/ringblk_buf.o
 .comment       0x0000000000000000       0x32 ./build/./components/drivers/src/ringblk_buf.o
 .debug_frame   0x0000000000000000      0x390 ./build/./components/drivers/src/ringblk_buf.o
 .ARM.attributes
                0x0000000000000000       0x33 ./build/./components/drivers/src/ringblk_buf.o
 .text          0x0000000000000000        0x0 ./build/./components/drivers/src/ringbuffer.o
 .data          0x0000000000000000        0x0 ./build/./components/drivers/src/ringbuffer.o
 .bss           0x0000000000000000        0x0 ./build/./components/drivers/src/ringbuffer.o
 .text.rt_ringbuffer_status
                0x0000000000000000       0x4c ./build/./components/drivers/src/ringbuffer.o
 .rodata        0x0000000000000000       0x19 ./build/./components/drivers/src/ringbuffer.o
 .text.rt_ringbuffer_init
                0x0000000000000000       0xa4 ./build/./components/drivers/src/ringbuffer.o
 .text.rt_ringbuffer_put
                0x0000000000000000      0x16c ./build/./components/drivers/src/ringbuffer.o
 .text.rt_ringbuffer_put_force
                0x0000000000000000      0x1d0 ./build/./components/drivers/src/ringbuffer.o
 .text.rt_ringbuffer_get
                0x0000000000000000      0x15c ./build/./components/drivers/src/ringbuffer.o
 .text.rt_ringbuffer_putchar
                0x0000000000000000       0xb8 ./build/./components/drivers/src/ringbuffer.o
 .text.rt_ringbuffer_putchar_force
                0x0000000000000000       0xfc ./build/./components/drivers/src/ringbuffer.o
 .text.rt_ringbuffer_getchar
                0x0000000000000000       0xb4 ./build/./components/drivers/src/ringbuffer.o
 .text.rt_ringbuffer_data_len
                0x0000000000000000       0x84 ./build/./components/drivers/src/ringbuffer.o
 .text.rt_ringbuffer_reset
                0x0000000000000000       0x54 ./build/./components/drivers/src/ringbuffer.o
 .text.rt_ringbuffer_create
                0x0000000000000000       0x74 ./build/./components/drivers/src/ringbuffer.o
 .text.rt_ringbuffer_destroy
                0x0000000000000000       0x3c ./build/./components/drivers/src/ringbuffer.o
 .rodata.__FUNCTION__.5621
                0x0000000000000000       0x13 ./build/./components/drivers/src/ringbuffer.o
 .rodata.__FUNCTION__.5628
                0x0000000000000000       0x12 ./build/./components/drivers/src/ringbuffer.o
 .rodata.__FUNCTION__.5635
                0x0000000000000000       0x18 ./build/./components/drivers/src/ringbuffer.o
 .rodata.__FUNCTION__.5642
                0x0000000000000000       0x12 ./build/./components/drivers/src/ringbuffer.o
 .rodata.__FUNCTION__.5647
                0x0000000000000000       0x16 ./build/./components/drivers/src/ringbuffer.o
 .rodata.__FUNCTION__.5653
                0x0000000000000000       0x1c ./build/./components/drivers/src/ringbuffer.o
 .rodata.__FUNCTION__.5658
                0x0000000000000000       0x16 ./build/./components/drivers/src/ringbuffer.o
 .rodata.__FUNCTION__.5669
                0x0000000000000000       0x14 ./build/./components/drivers/src/ringbuffer.o
 .rodata.__FUNCTION__.5675
                0x0000000000000000       0x15 ./build/./components/drivers/src/ringbuffer.o
 .rodata.__FUNCTION__.5680
                0x0000000000000000       0x16 ./build/./components/drivers/src/ringbuffer.o
 .debug_info    0x0000000000000000      0x635 ./build/./components/drivers/src/ringbuffer.o
 .debug_abbrev  0x0000000000000000      0x1ea ./build/./components/drivers/src/ringbuffer.o
 .debug_loc     0x0000000000000000      0x3cc ./build/./components/drivers/src/ringbuffer.o
 .debug_aranges
                0x0000000000000000       0x78 ./build/./components/drivers/src/ringbuffer.o
 .debug_ranges  0x0000000000000000       0x68 ./build/./components/drivers/src/ringbuffer.o
 .debug_line    0x0000000000000000      0x27f ./build/./components/drivers/src/ringbuffer.o
 .debug_str     0x0000000000000000      0x3ce ./build/./components/drivers/src/ringbuffer.o
 .comment       0x0000000000000000       0x32 ./build/./components/drivers/src/ringbuffer.o
 .debug_frame   0x0000000000000000      0x1d4 ./build/./components/drivers/src/ringbuffer.o
 .ARM.attributes
                0x0000000000000000       0x33 ./build/./components/drivers/src/ringbuffer.o
 .text          0x0000000000000000        0x0 ./build/./components/drivers/src/waitqueue.o
 .data          0x0000000000000000        0x0 ./build/./components/drivers/src/waitqueue.o
 .bss           0x0000000000000000        0x0 ./build/./components/drivers/src/waitqueue.o
 .text.rt_list_init
                0x0000000000000000       0x20 ./build/./components/drivers/src/waitqueue.o
 .text.rt_list_insert_before
                0x0000000000000000       0x30 ./build/./components/drivers/src/waitqueue.o
 .text.rt_list_remove
                0x0000000000000000       0x34 ./build/./components/drivers/src/waitqueue.o
 .text.rt_list_isempty
                0x0000000000000000       0x22 ./build/./components/drivers/src/waitqueue.o
 .text.rt_wqueue_add
                0x0000000000000000       0x2e ./build/./components/drivers/src/waitqueue.o
 .text.rt_wqueue_remove
                0x0000000000000000       0x26 ./build/./components/drivers/src/waitqueue.o
 .text.__wqueue_default_wake
                0x0000000000000000       0x16 ./build/./components/drivers/src/waitqueue.o
 .text.rt_wqueue_wakeup
                0x0000000000000000       0x80 ./build/./components/drivers/src/waitqueue.o
 .rodata        0x0000000000000000       0x2a ./build/./components/drivers/src/waitqueue.o
 .text.rt_wqueue_wait
                0x0000000000000000       0xf8 ./build/./components/drivers/src/waitqueue.o
 .rodata.__FUNCTION__.5634
                0x0000000000000000        0xf ./build/./components/drivers/src/waitqueue.o
 .debug_info    0x0000000000000000      0x78d ./build/./components/drivers/src/waitqueue.o
 .debug_abbrev  0x0000000000000000      0x208 ./build/./components/drivers/src/waitqueue.o
 .debug_loc     0x0000000000000000      0x30e ./build/./components/drivers/src/waitqueue.o
 .debug_aranges
                0x0000000000000000       0x60 ./build/./components/drivers/src/waitqueue.o
 .debug_ranges  0x0000000000000000       0x50 ./build/./components/drivers/src/waitqueue.o
 .debug_line    0x0000000000000000      0x1ee ./build/./components/drivers/src/waitqueue.o
 .debug_str     0x0000000000000000      0x48b ./build/./components/drivers/src/waitqueue.o
 .comment       0x0000000000000000       0x32 ./build/./components/drivers/src/waitqueue.o
 .debug_frame   0x0000000000000000      0x16c ./build/./components/drivers/src/waitqueue.o
 .ARM.attributes
                0x0000000000000000       0x33 ./build/./components/drivers/src/waitqueue.o
 .text          0x0000000000000000        0x0 ./build/./components/drivers/src/workqueue.o
 .data          0x0000000000000000        0x0 ./build/./components/drivers/src/workqueue.o
 .bss           0x0000000000000000        0x0 ./build/./components/drivers/src/workqueue.o
 .text.rt_list_init
                0x0000000000000000       0x20 ./build/./components/drivers/src/workqueue.o
 .text.rt_list_insert_after
                0x0000000000000000       0x30 ./build/./components/drivers/src/workqueue.o
 .text.rt_list_remove
                0x0000000000000000       0x34 ./build/./components/drivers/src/workqueue.o
 .text.rt_list_isempty
                0x0000000000000000       0x22 ./build/./components/drivers/src/workqueue.o
 .text.rt_work_init
                0x0000000000000000       0x3a ./build/./components/drivers/src/workqueue.o
 .text._workqueue_work_completion
                0x0000000000000000       0x4c ./build/./components/drivers/src/workqueue.o
 .rodata        0x0000000000000000       0x34 ./build/./components/drivers/src/workqueue.o
 .text._workqueue_thread_entry
                0x0000000000000000       0xa0 ./build/./components/drivers/src/workqueue.o
 .text._workqueue_submit_work
                0x0000000000000000       0x90 ./build/./components/drivers/src/workqueue.o
 .text._workqueue_cancel_work
                0x0000000000000000       0x4c ./build/./components/drivers/src/workqueue.o
 .text._workqueue_cancel_delayed_work
                0x0000000000000000       0xa2 ./build/./components/drivers/src/workqueue.o
 .text._workqueue_submit_delayed_work
                0x0000000000000000       0xbc ./build/./components/drivers/src/workqueue.o
 .text._delayed_work_timeout_handler
                0x0000000000000000       0x5c ./build/./components/drivers/src/workqueue.o
 .text.rt_workqueue_create
                0x0000000000000000       0x8c ./build/./components/drivers/src/workqueue.o
 .text.rt_workqueue_destroy
                0x0000000000000000       0x3c ./build/./components/drivers/src/workqueue.o
 .text.rt_workqueue_dowork
                0x0000000000000000       0x4c ./build/./components/drivers/src/workqueue.o
 .text.rt_workqueue_submit_work
                0x0000000000000000       0x7c ./build/./components/drivers/src/workqueue.o
 .text.rt_workqueue_critical_work
                0x0000000000000000       0x9c ./build/./components/drivers/src/workqueue.o
 .text.rt_workqueue_cancel_work
                0x0000000000000000       0x64 ./build/./components/drivers/src/workqueue.o
 .text.rt_workqueue_cancel_work_sync
                0x0000000000000000       0x80 ./build/./components/drivers/src/workqueue.o
 .text.rt_workqueue_cancel_all_work
                0x0000000000000000       0x54 ./build/./components/drivers/src/workqueue.o
 .text.rt_delayed_work_init
                0x0000000000000000       0x20 ./build/./components/drivers/src/workqueue.o
 .rodata.__FUNCTION__.5612
                0x0000000000000000       0x18 ./build/./components/drivers/src/workqueue.o
 .rodata.__FUNCTION__.5652
                0x0000000000000000       0x15 ./build/./components/drivers/src/workqueue.o
 .rodata.__FUNCTION__.5657
                0x0000000000000000       0x14 ./build/./components/drivers/src/workqueue.o
 .rodata.__FUNCTION__.5663
                0x0000000000000000       0x19 ./build/./components/drivers/src/workqueue.o
 .rodata.__FUNCTION__.5669
                0x0000000000000000       0x1b ./build/./components/drivers/src/workqueue.o
 .rodata.__FUNCTION__.5674
                0x0000000000000000       0x19 ./build/./components/drivers/src/workqueue.o
 .rodata.__FUNCTION__.5680
                0x0000000000000000       0x1e ./build/./components/drivers/src/workqueue.o
 .rodata.__FUNCTION__.5686
                0x0000000000000000       0x1d ./build/./components/drivers/src/workqueue.o
 .debug_info    0x0000000000000000      0xc50 ./build/./components/drivers/src/workqueue.o
 .debug_abbrev  0x0000000000000000      0x25c ./build/./components/drivers/src/workqueue.o
 .debug_loc     0x0000000000000000      0x6a8 ./build/./components/drivers/src/workqueue.o
 .debug_aranges
                0x0000000000000000       0xc0 ./build/./components/drivers/src/workqueue.o
 .debug_ranges  0x0000000000000000       0xb0 ./build/./components/drivers/src/workqueue.o
 .debug_line    0x0000000000000000      0x392 ./build/./components/drivers/src/workqueue.o
 .debug_str     0x0000000000000000      0x657 ./build/./components/drivers/src/workqueue.o
 .comment       0x0000000000000000       0x32 ./build/./components/drivers/src/workqueue.o
 .debug_frame   0x0000000000000000      0x314 ./build/./components/drivers/src/workqueue.o
 .ARM.attributes
                0x0000000000000000       0x33 ./build/./components/drivers/src/workqueue.o
 .text          0x0000000000000000        0x0 ./build/./components/finsh/cmd.o
 .data          0x0000000000000000        0x0 ./build/./components/finsh/cmd.o
 .bss           0x0000000000000000        0x0 ./build/./components/finsh/cmd.o
 .text          0x0000000000000000        0x0 ./build/./components/finsh/msh.o
 .data          0x0000000000000000        0x0 ./build/./components/finsh/msh.o
 .bss           0x0000000000000000        0x0 ./build/./components/finsh/msh.o
 .text          0x0000000000000000        0x0 ./build/./components/finsh/shell.o
 .data          0x0000000000000000        0x0 ./build/./components/finsh/shell.o
 .bss           0x0000000000000000        0x0 ./build/./components/finsh/shell.o
 .text.finsh_set_prompt
                0x0000000000000000       0x60 ./build/./components/finsh/shell.o
 .text.finsh_get_prompt_mode
                0x0000000000000000       0x34 ./build/./components/finsh/shell.o
 .text.finsh_get_device
                0x0000000000000000       0x30 ./build/./components/finsh/shell.o
 .text.finsh_set_echo
                0x0000000000000000       0x4c ./build/./components/finsh/shell.o
 .text.finsh_get_echo
                0x0000000000000000       0x38 ./build/./components/finsh/shell.o
 .rodata.__FUNCTION__.5493
                0x0000000000000000       0x16 ./build/./components/finsh/shell.o
 .rodata.__FUNCTION__.5518
                0x0000000000000000       0x11 ./build/./components/finsh/shell.o
 .rodata.__FUNCTION__.5522
                0x0000000000000000        0xf ./build/./components/finsh/shell.o
 .rodata.__FUNCTION__.5525
                0x0000000000000000        0xf ./build/./components/finsh/shell.o
 .text          0x0000000000000000        0x0 ./build/./components/libc/compilers/minilibc/ctype.o
 .data          0x0000000000000000        0x0 ./build/./components/libc/compilers/minilibc/ctype.o
 .bss           0x0000000000000000        0x0 ./build/./components/libc/compilers/minilibc/ctype.o
 .text.isprint  0x0000000000000000       0x2c ./build/./components/libc/compilers/minilibc/ctype.o
 .text.isalpha  0x0000000000000000       0x24 ./build/./components/libc/compilers/minilibc/ctype.o
 .text.isdigit  0x0000000000000000       0x20 ./build/./components/libc/compilers/minilibc/ctype.o
 .text.isspace  0x0000000000000000       0x26 ./build/./components/libc/compilers/minilibc/ctype.o
 .debug_info    0x0000000000000000      0x1e3 ./build/./components/libc/compilers/minilibc/ctype.o
 .debug_abbrev  0x0000000000000000       0xe7 ./build/./components/libc/compilers/minilibc/ctype.o
 .debug_loc     0x0000000000000000      0x170 ./build/./components/libc/compilers/minilibc/ctype.o
 .debug_aranges
                0x0000000000000000       0x38 ./build/./components/libc/compilers/minilibc/ctype.o
 .debug_ranges  0x0000000000000000       0x28 ./build/./components/libc/compilers/minilibc/ctype.o
 .debug_line    0x0000000000000000      0x103 ./build/./components/libc/compilers/minilibc/ctype.o
 .debug_str     0x0000000000000000      0x1f0 ./build/./components/libc/compilers/minilibc/ctype.o
 .comment       0x0000000000000000       0x32 ./build/./components/libc/compilers/minilibc/ctype.o
 .debug_frame   0x0000000000000000       0xb0 ./build/./components/libc/compilers/minilibc/ctype.o
 .ARM.attributes
                0x0000000000000000       0x33 ./build/./components/libc/compilers/minilibc/ctype.o
 .text          0x0000000000000000        0x0 ./build/./components/libc/compilers/minilibc/math.o
 .data          0x0000000000000000        0x0 ./build/./components/libc/compilers/minilibc/math.o
 .bss           0x0000000000000000        0x0 ./build/./components/libc/compilers/minilibc/math.o
 .data.cos_off_tbl
                0x0000000000000000       0x20 ./build/./components/libc/compilers/minilibc/math.o
 .data.cos_sign_tbl
                0x0000000000000000       0x20 ./build/./components/libc/compilers/minilibc/math.o
 .data.sin_off_tbl
                0x0000000000000000       0x20 ./build/./components/libc/compilers/minilibc/math.o
 .data.sin_sign_tbl
                0x0000000000000000       0x20 ./build/./components/libc/compilers/minilibc/math.o
 .text.sin      0x0000000000000000      0x2c0 ./build/./components/libc/compilers/minilibc/math.o
 .text.cos      0x0000000000000000      0x2b8 ./build/./components/libc/compilers/minilibc/math.o
 .debug_info    0x0000000000000000      0x13e ./build/./components/libc/compilers/minilibc/math.o
 .debug_abbrev  0x0000000000000000       0xa1 ./build/./components/libc/compilers/minilibc/math.o
 .debug_loc     0x0000000000000000       0xa0 ./build/./components/libc/compilers/minilibc/math.o
 .debug_aranges
                0x0000000000000000       0x28 ./build/./components/libc/compilers/minilibc/math.o
 .debug_ranges  0x0000000000000000       0x18 ./build/./components/libc/compilers/minilibc/math.o
 .debug_line    0x0000000000000000       0xb0 ./build/./components/libc/compilers/minilibc/math.o
 .debug_str     0x0000000000000000      0x11f ./build/./components/libc/compilers/minilibc/math.o
 .comment       0x0000000000000000       0x32 ./build/./components/libc/compilers/minilibc/math.o
 .debug_frame   0x0000000000000000       0x60 ./build/./components/libc/compilers/minilibc/math.o
 .ARM.attributes
                0x0000000000000000       0x33 ./build/./components/libc/compilers/minilibc/math.o
 .text          0x0000000000000000        0x0 ./build/./components/libc/compilers/minilibc/qsort.o
 .data          0x0000000000000000        0x0 ./build/./components/libc/compilers/minilibc/qsort.o
 .bss           0x0000000000000000        0x0 ./build/./components/libc/compilers/minilibc/qsort.o
 .text.exch     0x0000000000000000       0x62 ./build/./components/libc/compilers/minilibc/qsort.o
 .text.quicksort
                0x0000000000000000      0x190 ./build/./components/libc/compilers/minilibc/qsort.o
 .text.qsort    0x0000000000000000       0x48 ./build/./components/libc/compilers/minilibc/qsort.o
 .debug_info    0x0000000000000000      0x20a ./build/./components/libc/compilers/minilibc/qsort.o
 .debug_abbrev  0x0000000000000000       0xde ./build/./components/libc/compilers/minilibc/qsort.o
 .debug_loc     0x0000000000000000       0xfc ./build/./components/libc/compilers/minilibc/qsort.o
 .debug_aranges
                0x0000000000000000       0x30 ./build/./components/libc/compilers/minilibc/qsort.o
 .debug_ranges  0x0000000000000000       0x20 ./build/./components/libc/compilers/minilibc/qsort.o
 .debug_line    0x0000000000000000      0x12a ./build/./components/libc/compilers/minilibc/qsort.o
 .debug_str     0x0000000000000000      0x151 ./build/./components/libc/compilers/minilibc/qsort.o
 .comment       0x0000000000000000       0x32 ./build/./components/libc/compilers/minilibc/qsort.o
 .debug_frame   0x0000000000000000       0x84 ./build/./components/libc/compilers/minilibc/qsort.o
 .ARM.attributes
                0x0000000000000000       0x33 ./build/./components/libc/compilers/minilibc/qsort.o
 .text          0x0000000000000000        0x0 ./build/./components/libc/compilers/minilibc/rand.o
 .data          0x0000000000000000        0x0 ./build/./components/libc/compilers/minilibc/rand.o
 .bss           0x0000000000000000        0x0 ./build/./components/libc/compilers/minilibc/rand.o
 .data._seed    0x0000000000000000        0x4 ./build/./components/libc/compilers/minilibc/rand.o
 .text.rand_r   0x0000000000000000       0x70 ./build/./components/libc/compilers/minilibc/rand.o
 .text.rand     0x0000000000000000       0x14 ./build/./components/libc/compilers/minilibc/rand.o
 .text.srand    0x0000000000000000       0x1c ./build/./components/libc/compilers/minilibc/rand.o
 .debug_info    0x0000000000000000      0x10c ./build/./components/libc/compilers/minilibc/rand.o
 .debug_abbrev  0x0000000000000000       0xce ./build/./components/libc/compilers/minilibc/rand.o
 .debug_loc     0x0000000000000000       0xe4 ./build/./components/libc/compilers/minilibc/rand.o
 .debug_aranges
                0x0000000000000000       0x30 ./build/./components/libc/compilers/minilibc/rand.o
 .debug_ranges  0x0000000000000000       0x20 ./build/./components/libc/compilers/minilibc/rand.o
 .debug_line    0x0000000000000000       0x98 ./build/./components/libc/compilers/minilibc/rand.o
 .debug_str     0x0000000000000000      0x170 ./build/./components/libc/compilers/minilibc/rand.o
 .comment       0x0000000000000000       0x32 ./build/./components/libc/compilers/minilibc/rand.o
 .debug_frame   0x0000000000000000       0x7c ./build/./components/libc/compilers/minilibc/rand.o
 .ARM.attributes
                0x0000000000000000       0x33 ./build/./components/libc/compilers/minilibc/rand.o
 .text          0x0000000000000000        0x0 ./build/./components/libc/compilers/minilibc/stdlib.o
 .data          0x0000000000000000        0x0 ./build/./components/libc/compilers/minilibc/stdlib.o
 .bss           0x0000000000000000        0x0 ./build/./components/libc/compilers/minilibc/stdlib.o
 .text.atoi     0x0000000000000000       0x84 ./build/./components/libc/compilers/minilibc/stdlib.o
 .text.atol     0x0000000000000000       0x82 ./build/./components/libc/compilers/minilibc/stdlib.o
 .text.free     0x0000000000000000       0x16 ./build/./components/libc/compilers/minilibc/stdlib.o
 .text.realloc  0x0000000000000000       0x1c ./build/./components/libc/compilers/minilibc/stdlib.o
 .text.calloc   0x0000000000000000       0x1c ./build/./components/libc/compilers/minilibc/stdlib.o
 .text          0x0000000000000000        0x0 ./build/./components/libc/compilers/minilibc/string.o
 .data          0x0000000000000000        0x0 ./build/./components/libc/compilers/minilibc/string.o
 .bss           0x0000000000000000        0x0 ./build/./components/libc/compilers/minilibc/string.o
 .text.strcpy   0x0000000000000000       0x28 ./build/./components/libc/compilers/minilibc/string.o
 .text.strlcpy  0x0000000000000000       0x64 ./build/./components/libc/compilers/minilibc/string.o
 .text.strcmp   0x0000000000000000       0x42 ./build/./components/libc/compilers/minilibc/string.o
 .text.strcat   0x0000000000000000       0x42 ./build/./components/libc/compilers/minilibc/string.o
 .text.strncat  0x0000000000000000       0x5e ./build/./components/libc/compilers/minilibc/string.o
 .text.strrchr  0x0000000000000000       0x38 ./build/./components/libc/compilers/minilibc/string.o
 .text.strncasecmp
                0x0000000000000000       0x62 ./build/./components/libc/compilers/minilibc/string.o
 .text.skip_atoi
                0x0000000000000000       0x40 ./build/./components/libc/compilers/minilibc/string.o
 .data._ctype   0x0000000000000000      0x100 ./build/./components/libc/compilers/minilibc/string.o
 .text.__tolower
                0x0000000000000000       0x30 ./build/./components/libc/compilers/minilibc/string.o
 .text.__toupper
                0x0000000000000000       0x30 ./build/./components/libc/compilers/minilibc/string.o
 .text.tolower  0x0000000000000000       0x1c ./build/./components/libc/compilers/minilibc/string.o
 .text.toupper  0x0000000000000000       0x1c ./build/./components/libc/compilers/minilibc/string.o
 .text.simple_strtoul
                0x0000000000000000       0xf0 ./build/./components/libc/compilers/minilibc/string.o
 .text.simple_strtol
                0x0000000000000000       0x3c ./build/./components/libc/compilers/minilibc/string.o
 .text.simple_strtoull
                0x0000000000000000      0x120 ./build/./components/libc/compilers/minilibc/string.o
 .text.simple_strtoll
                0x0000000000000000       0x46 ./build/./components/libc/compilers/minilibc/string.o
 .text.vsscanf  0x0000000000000000      0x5f8 ./build/./components/libc/compilers/minilibc/string.o
 .text.sscanf   0x0000000000000000       0x2c ./build/./components/libc/compilers/minilibc/string.o
 .text.strspn   0x0000000000000000       0x7a ./build/./components/libc/compilers/minilibc/string.o
 .text.strcspn  0x0000000000000000       0x76 ./build/./components/libc/compilers/minilibc/string.o
 .text.strtok_r
                0x0000000000000000       0x6a ./build/./components/libc/compilers/minilibc/string.o
 .text.strtok   0x0000000000000000       0x24 ./build/./components/libc/compilers/minilibc/string.o
 .text.strchr   0x0000000000000000       0x46 ./build/./components/libc/compilers/minilibc/string.o
 .text.strtol   0x0000000000000000       0x22 ./build/./components/libc/compilers/minilibc/string.o
 .text.strtoll  0x0000000000000000       0x26 ./build/./components/libc/compilers/minilibc/string.o
 .bss.strtok_pos.5466
                0x0000000000000000        0x4 ./build/./components/libc/compilers/minilibc/string.o
 .text          0x0000000000000000        0x0 ./build/./components/libc/compilers/minilibc/time.o
 .data          0x0000000000000000        0x0 ./build/./components/libc/compilers/minilibc/time.o
 .bss           0x0000000000000000        0x0 ./build/./components/libc/compilers/minilibc/time.o
 .rodata.__spm  0x0000000000000000       0x1a ./build/./components/libc/compilers/minilibc/time.o
 .bss.timezone  0x0000000000000000        0x4 ./build/./components/libc/compilers/minilibc/time.o
 .rodata.days   0x0000000000000000       0x1d ./build/./components/libc/compilers/minilibc/time.o
 .rodata.months
                0x0000000000000000       0x31 ./build/./components/libc/compilers/minilibc/time.o
 .text.__isleap
                0x0000000000000000       0x5c ./build/./components/libc/compilers/minilibc/time.o
 .text.gmtime_r
                0x0000000000000000      0x160 ./build/./components/libc/compilers/minilibc/time.o
 .text.localtime_r
                0x0000000000000000       0x58 ./build/./components/libc/compilers/minilibc/time.o
 .text.localtime
                0x0000000000000000       0x20 ./build/./components/libc/compilers/minilibc/time.o
 .text.mktime   0x0000000000000000      0x264 ./build/./components/libc/compilers/minilibc/time.o
 .text.num2str  0x0000000000000000       0x54 ./build/./components/libc/compilers/minilibc/time.o
 .text.asctime_r
                0x0000000000000000      0x110 ./build/./components/libc/compilers/minilibc/time.o
 .text.asctime  0x0000000000000000       0x20 ./build/./components/libc/compilers/minilibc/time.o
 .text.ctime    0x0000000000000000       0x20 ./build/./components/libc/compilers/minilibc/time.o
 .rodata        0x0000000000000000       0x16 ./build/./components/libc/compilers/minilibc/time.o
 .text.gettimeofday
                0x0000000000000000       0x58 ./build/./components/libc/compilers/minilibc/time.o
 .text._gettimeofday
                0x0000000000000000       0x22 ./build/./components/libc/compilers/minilibc/time.o
 .text.time     0x0000000000000000       0x24 ./build/./components/libc/compilers/minilibc/time.o
 .text.clock    0x0000000000000000        0xe ./build/./components/libc/compilers/minilibc/time.o
 .bss.tmp.5160  0x0000000000000000       0x2c ./build/./components/libc/compilers/minilibc/time.o
 .bss.buf.5181  0x0000000000000000       0x19 ./build/./components/libc/compilers/minilibc/time.o
 .rodata.__FUNCTION__.5191
                0x0000000000000000        0xd ./build/./components/libc/compilers/minilibc/time.o
 .debug_info    0x0000000000000000      0x99a ./build/./components/libc/compilers/minilibc/time.o
 .debug_abbrev  0x0000000000000000      0x204 ./build/./components/libc/compilers/minilibc/time.o
 .debug_loc     0x0000000000000000      0x41c ./build/./components/libc/compilers/minilibc/time.o
 .debug_aranges
                0x0000000000000000       0x80 ./build/./components/libc/compilers/minilibc/time.o
 .debug_ranges  0x0000000000000000       0x88 ./build/./components/libc/compilers/minilibc/time.o
 .debug_line    0x0000000000000000      0x28f ./build/./components/libc/compilers/minilibc/time.o
 .debug_str     0x0000000000000000      0x62d ./build/./components/libc/compilers/minilibc/time.o
 .comment       0x0000000000000000       0x32 ./build/./components/libc/compilers/minilibc/time.o
 .debug_frame   0x0000000000000000      0x1f8 ./build/./components/libc/compilers/minilibc/time.o
 .ARM.attributes
                0x0000000000000000       0x33 ./build/./components/libc/compilers/minilibc/time.o
 .text          0x0000000000000000        0x0 ./build/./libcpu/arm/common/backtrace.o
 .data          0x0000000000000000        0x0 ./build/./libcpu/arm/common/backtrace.o
 .bss           0x0000000000000000        0x0 ./build/./libcpu/arm/common/backtrace.o
 .rodata        0x0000000000000000       0x19 ./build/./libcpu/arm/common/backtrace.o
 .text.rt_hw_backtrace
                0x0000000000000000       0x78 ./build/./libcpu/arm/common/backtrace.o
 .debug_info    0x0000000000000000      0x1a5 ./build/./libcpu/arm/common/backtrace.o
 .debug_abbrev  0x0000000000000000       0xf8 ./build/./libcpu/arm/common/backtrace.o
 .debug_loc     0x0000000000000000       0x50 ./build/./libcpu/arm/common/backtrace.o
 .debug_aranges
                0x0000000000000000       0x20 ./build/./libcpu/arm/common/backtrace.o
 .debug_ranges  0x0000000000000000       0x10 ./build/./libcpu/arm/common/backtrace.o
 .debug_line    0x0000000000000000       0xcf ./build/./libcpu/arm/common/backtrace.o
 .debug_str     0x0000000000000000      0x1f7 ./build/./libcpu/arm/common/backtrace.o
 .comment       0x0000000000000000       0x32 ./build/./libcpu/arm/common/backtrace.o
 .debug_frame   0x0000000000000000       0x34 ./build/./libcpu/arm/common/backtrace.o
 .ARM.attributes
                0x0000000000000000       0x33 ./build/./libcpu/arm/common/backtrace.o
 .text          0x0000000000000000        0x0 ./build/./libcpu/arm/common/div0.o
 .data          0x0000000000000000        0x0 ./build/./libcpu/arm/common/div0.o
 .bss           0x0000000000000000        0x0 ./build/./libcpu/arm/common/div0.o
 .text.__div0   0x0000000000000000        0x6 ./build/./libcpu/arm/common/div0.o
 .debug_info    0x0000000000000000       0x40 ./build/./libcpu/arm/common/div0.o
 .debug_abbrev  0x0000000000000000       0x2e ./build/./libcpu/arm/common/div0.o
 .debug_loc     0x0000000000000000       0x2c ./build/./libcpu/arm/common/div0.o
 .debug_aranges
                0x0000000000000000       0x20 ./build/./libcpu/arm/common/div0.o
 .debug_ranges  0x0000000000000000       0x10 ./build/./libcpu/arm/common/div0.o
 .debug_line    0x0000000000000000       0x56 ./build/./libcpu/arm/common/div0.o
 .debug_str     0x0000000000000000       0xbd ./build/./libcpu/arm/common/div0.o
 .comment       0x0000000000000000       0x32 ./build/./libcpu/arm/common/div0.o
 .debug_frame   0x0000000000000000       0x28 ./build/./libcpu/arm/common/div0.o
 .ARM.attributes
                0x0000000000000000       0x33 ./build/./libcpu/arm/common/div0.o
 .text          0x0000000000000000        0x0 ./build/./libcpu/arm/common/showmem.o
 .data          0x0000000000000000        0x0 ./build/./libcpu/arm/common/showmem.o
 .bss           0x0000000000000000        0x0 ./build/./libcpu/arm/common/showmem.o
 .rodata        0x0000000000000000       0x22 ./build/./libcpu/arm/common/showmem.o
 .text.rt_hw_show_memory
                0x0000000000000000       0x94 ./build/./libcpu/arm/common/showmem.o
 .rodata.__FUNCTION__.5138
                0x0000000000000000       0x12 ./build/./libcpu/arm/common/showmem.o
 .debug_info    0x0000000000000000      0x1b6 ./build/./libcpu/arm/common/showmem.o
 .debug_abbrev  0x0000000000000000       0xf9 ./build/./libcpu/arm/common/showmem.o
 .debug_loc     0x0000000000000000       0x50 ./build/./libcpu/arm/common/showmem.o
 .debug_aranges
                0x0000000000000000       0x20 ./build/./libcpu/arm/common/showmem.o
 .debug_ranges  0x0000000000000000       0x10 ./build/./libcpu/arm/common/showmem.o
 .debug_line    0x0000000000000000       0xd8 ./build/./libcpu/arm/common/showmem.o
 .debug_str     0x0000000000000000      0x1f6 ./build/./libcpu/arm/common/showmem.o
 .comment       0x0000000000000000       0x32 ./build/./libcpu/arm/common/showmem.o
 .debug_frame   0x0000000000000000       0x34 ./build/./libcpu/arm/common/showmem.o
 .ARM.attributes
                0x0000000000000000       0x33 ./build/./libcpu/arm/common/showmem.o
 .text          0x0000000000000000        0x0 ./build/./libcpu/arm/cortex-m3/cpuport.o
 .data          0x0000000000000000        0x0 ./build/./libcpu/arm/cortex-m3/cpuport.o
 .bss           0x0000000000000000        0x0 ./build/./libcpu/arm/cortex-m3/cpuport.o
 .text.rt_hw_exception_install
                0x0000000000000000       0x1c ./build/./libcpu/arm/cortex-m3/cpuport.o
 .text.rt_hw_cpu_shutdown
                0x0000000000000000       0x28 ./build/./libcpu/arm/cortex-m3/cpuport.o
 .rodata.__FUNCTION__.5199
                0x0000000000000000       0x13 ./build/./libcpu/arm/cortex-m3/cpuport.o
 .text          0x0000000000000000        0x0 ./build/./src/clock.o
 .data          0x0000000000000000        0x0 ./build/./src/clock.o
 .bss           0x0000000000000000        0x0 ./build/./src/clock.o
 .text.rt_system_tick_init
                0x0000000000000000        0xc ./build/./src/clock.o
 .text.rt_tick_set
                0x0000000000000000       0x28 ./build/./src/clock.o
 .text          0x0000000000000000        0x0 ./build/./src/components.o
 .data          0x0000000000000000        0x0 ./build/./src/components.o
 .bss           0x0000000000000000        0x0 ./build/./src/components.o
 .text          0x0000000000000000        0x0 ./build/./src/device.o
 .data          0x0000000000000000        0x0 ./build/./src/device.o
 .bss           0x0000000000000000        0x0 ./build/./src/device.o
 .text.rt_device_unregister
                0x0000000000000000       0x6c ./build/./src/device.o
 .text.rt_device_init_all
                0x0000000000000000        0xe ./build/./src/device.o
 .text.rt_device_create
                0x0000000000000000       0x4c ./build/./src/device.o
 .text.rt_device_destroy
                0x0000000000000000       0x70 ./build/./src/device.o
 .text.rt_device_init
                0x0000000000000000       0x74 ./build/./src/device.o
 .text.rt_device_control
                0x0000000000000000       0x68 ./build/./src/device.o
 .text.rt_device_set_tx_complete
                0x0000000000000000       0x54 ./build/./src/device.o
 .rodata.__FUNCTION__.5140
                0x0000000000000000       0x15 ./build/./src/device.o
 .rodata.__FUNCTION__.5163
                0x0000000000000000       0x12 ./build/./src/device.o
 .rodata.__FUNCTION__.5168
                0x0000000000000000        0xf ./build/./src/device.o
 .rodata.__FUNCTION__.5199
                0x0000000000000000       0x12 ./build/./src/device.o
 .rodata.__FUNCTION__.5213
                0x0000000000000000       0x1a ./build/./src/device.o
 .text          0x0000000000000000        0x0 ./build/./src/idle.o
 .data          0x0000000000000000        0x0 ./build/./src/idle.o
 .bss           0x0000000000000000        0x0 ./build/./src/idle.o
 .text.rt_thread_idle_sethook
                0x0000000000000000       0x58 ./build/./src/idle.o
 .text.rt_thread_idle_delhook
                0x0000000000000000       0x58 ./build/./src/idle.o
 .text.rt_thread_idle_gethandler
                0x0000000000000000       0x18 ./build/./src/idle.o
 .text          0x0000000000000000        0x0 ./build/./src/ipc.o
 .data          0x0000000000000000        0x0 ./build/./src/ipc.o
 .bss           0x0000000000000000        0x0 ./build/./src/ipc.o
 .text.rt_ipc_list_resume_all
                0x0000000000000000       0x46 ./build/./src/ipc.o
 .text.rt_sem_detach
                0x0000000000000000       0x74 ./build/./src/ipc.o
 .text.rt_sem_create
                0x0000000000000000       0x90 ./build/./src/ipc.o
 .text.rt_sem_delete
                0x0000000000000000       0xac ./build/./src/ipc.o
 .text.rt_sem_trytake
                0x0000000000000000       0x1a ./build/./src/ipc.o
 .text.rt_sem_control
                0x0000000000000000       0x84 ./build/./src/ipc.o
 .text.rt_mutex_init
                0x0000000000000000       0x64 ./build/./src/ipc.o
 .text.rt_mutex_detach
                0x0000000000000000       0x7c ./build/./src/ipc.o
 .text.rt_mutex_create
                0x0000000000000000       0x88 ./build/./src/ipc.o
 .text.rt_mutex_delete
                0x0000000000000000       0xac ./build/./src/ipc.o
 .text.rt_mutex_take
                0x0000000000000000      0x1d0 ./build/./src/ipc.o
 .text.rt_mutex_release
                0x0000000000000000      0x190 ./build/./src/ipc.o
 .text.rt_mutex_control
                0x0000000000000000       0x50 ./build/./src/ipc.o
 .text.rt_event_init
                0x0000000000000000       0x54 ./build/./src/ipc.o
 .text.rt_event_detach
                0x0000000000000000       0x7c ./build/./src/ipc.o
 .text.rt_event_create
                0x0000000000000000       0x74 ./build/./src/ipc.o
 .text.rt_event_delete
                0x0000000000000000       0xac ./build/./src/ipc.o
 .text.rt_event_send
                0x0000000000000000      0x148 ./build/./src/ipc.o
 .text.rt_event_recv
                0x0000000000000000      0x1fc ./build/./src/ipc.o
 .text.rt_event_control
                0x0000000000000000       0x80 ./build/./src/ipc.o
 .text.rt_mb_init
                0x0000000000000000       0x78 ./build/./src/ipc.o
 .text.rt_mb_detach
                0x0000000000000000       0x84 ./build/./src/ipc.o
 .text.rt_mb_create
                0x0000000000000000       0xbc ./build/./src/ipc.o
 .text.rt_mb_delete
                0x0000000000000000       0xc0 ./build/./src/ipc.o
 .text.rt_mb_send_wait
                0x0000000000000000      0x208 ./build/./src/ipc.o
 .text.rt_mb_send
                0x0000000000000000       0x1e ./build/./src/ipc.o
 .text.rt_mb_recv
                0x0000000000000000      0x234 ./build/./src/ipc.o
 .text.rt_mb_control
                0x0000000000000000       0x94 ./build/./src/ipc.o
 .text.rt_mq_init
                0x0000000000000000       0xcc ./build/./src/ipc.o
 .text.rt_mq_detach
                0x0000000000000000       0x84 ./build/./src/ipc.o
 .text.rt_mq_create
                0x0000000000000000      0x10c ./build/./src/ipc.o
 .text.rt_mq_delete
                0x0000000000000000       0xc0 ./build/./src/ipc.o
 .text.rt_mq_send_wait
                0x0000000000000000      0x268 ./build/./src/ipc.o
 .text.rt_mq_send
                0x0000000000000000       0x22 ./build/./src/ipc.o
 .text.rt_mq_urgent
                0x0000000000000000      0x144 ./build/./src/ipc.o
 .text.rt_mq_recv
                0x0000000000000000      0x288 ./build/./src/ipc.o
 .text.rt_mq_control
                0x0000000000000000       0xc0 ./build/./src/ipc.o
 .rodata.__FUNCTION__.5250
                0x0000000000000000        0xe ./build/./src/ipc.o
 .rodata.__FUNCTION__.5258
                0x0000000000000000        0xe ./build/./src/ipc.o
 .rodata.__FUNCTION__.5263
                0x0000000000000000        0xe ./build/./src/ipc.o
 .rodata.__FUNCTION__.5288
                0x0000000000000000        0xf ./build/./src/ipc.o
 .rodata.__FUNCTION__.5295
                0x0000000000000000        0xe ./build/./src/ipc.o
 .rodata.__FUNCTION__.5299
                0x0000000000000000       0x10 ./build/./src/ipc.o
 .rodata.__FUNCTION__.5306
                0x0000000000000000       0x10 ./build/./src/ipc.o
 .rodata.__FUNCTION__.5311
                0x0000000000000000       0x10 ./build/./src/ipc.o
 .rodata.__FUNCTION__.5319
                0x0000000000000000        0xe ./build/./src/ipc.o
 .rodata.__FUNCTION__.5328
                0x0000000000000000       0x11 ./build/./src/ipc.o
 .rodata.__FUNCTION__.5336
                0x0000000000000000       0x11 ./build/./src/ipc.o
 .rodata.__FUNCTION__.5342
                0x0000000000000000        0xe ./build/./src/ipc.o
 .rodata.__FUNCTION__.5346
                0x0000000000000000       0x10 ./build/./src/ipc.o
 .rodata.__FUNCTION__.5353
                0x0000000000000000       0x10 ./build/./src/ipc.o
 .rodata.__FUNCTION__.5357
                0x0000000000000000       0x10 ./build/./src/ipc.o
 .rodata.__FUNCTION__.5368
                0x0000000000000000        0xe ./build/./src/ipc.o
 .rodata.__FUNCTION__.5383
                0x0000000000000000        0xe ./build/./src/ipc.o
 .rodata.__FUNCTION__.5391
                0x0000000000000000       0x11 ./build/./src/ipc.o
 .rodata.__FUNCTION__.5399
                0x0000000000000000        0xb ./build/./src/ipc.o
 .rodata.__FUNCTION__.5403
                0x0000000000000000        0xd ./build/./src/ipc.o
 .rodata.__FUNCTION__.5411
                0x0000000000000000        0xd ./build/./src/ipc.o
 .rodata.__FUNCTION__.5416
                0x0000000000000000        0xd ./build/./src/ipc.o
 .rodata.__FUNCTION__.5425
                0x0000000000000000       0x10 ./build/./src/ipc.o
 .rodata.__FUNCTION__.5443
                0x0000000000000000        0xb ./build/./src/ipc.o
 .rodata.__FUNCTION__.5455
                0x0000000000000000        0xe ./build/./src/ipc.o
 .rodata.__FUNCTION__.5468
                0x0000000000000000        0xb ./build/./src/ipc.o
 .rodata.__FUNCTION__.5475
                0x0000000000000000        0xd ./build/./src/ipc.o
 .rodata.__FUNCTION__.5486
                0x0000000000000000        0xd ./build/./src/ipc.o
 .rodata.__FUNCTION__.5494
                0x0000000000000000        0xd ./build/./src/ipc.o
 .rodata.__FUNCTION__.5505
                0x0000000000000000       0x10 ./build/./src/ipc.o
 .rodata.__FUNCTION__.5523
                0x0000000000000000        0xd ./build/./src/ipc.o
 .rodata.__FUNCTION__.5534
                0x0000000000000000        0xb ./build/./src/ipc.o
 .rodata.__FUNCTION__.5547
                0x0000000000000000        0xe ./build/./src/ipc.o
 .text          0x0000000000000000        0x0 ./build/./src/irq.o
 .data          0x0000000000000000        0x0 ./build/./src/irq.o
 .bss           0x0000000000000000        0x0 ./build/./src/irq.o
 .text.rt_interrupt_enter_sethook
                0x0000000000000000       0x1c ./build/./src/irq.o
 .text.rt_interrupt_leave_sethook
                0x0000000000000000       0x1c ./build/./src/irq.o
 .text          0x0000000000000000        0x0 ./build/./src/kservice.o
 .data          0x0000000000000000        0x0 ./build/./src/kservice.o
 .bss           0x0000000000000000        0x0 ./build/./src/kservice.o
 .text.rt_get_errno
                0x0000000000000000       0x38 ./build/./src/kservice.o
 .text._rt_errno
                0x0000000000000000       0x34 ./build/./src/kservice.o
 .text.rt_strstr
                0x0000000000000000       0x5e ./build/./src/kservice.o
 .text.rt_strcasecmp
                0x0000000000000000       0x60 ./build/./src/kservice.o
 .text.rt_strcmp
                0x0000000000000000       0x42 ./build/./src/kservice.o
 .text.rt_strnlen
                0x0000000000000000       0x3c ./build/./src/kservice.o
 .text.rt_strdup
                0x0000000000000000       0x3a ./build/./src/kservice.o
 .text.rt_snprintf
                0x0000000000000000       0x30 ./build/./src/kservice.o
 .text.rt_kputs
                0x0000000000000000       0x64 ./build/./src/kservice.o
 .text.rt_malloc_align
                0x0000000000000000       0x80 ./build/./src/kservice.o
 .text.rt_free_align
                0x0000000000000000       0x1e ./build/./src/kservice.o
 .text.rt_assert_set_hook
                0x0000000000000000       0x1c ./build/./src/kservice.o
 .text          0x0000000000000000        0x0 ./build/./src/mem.o
 .data          0x0000000000000000        0x0 ./build/./src/mem.o
 .bss           0x0000000000000000        0x0 ./build/./src/mem.o
 .text.rt_malloc_sethook
                0x0000000000000000       0x1c ./build/./src/mem.o
 .text.rt_free_sethook
                0x0000000000000000       0x1c ./build/./src/mem.o
 .text.rt_realloc
                0x0000000000000000      0x1ac ./build/./src/mem.o
 .text.rt_memory_info
                0x0000000000000000       0x4c ./build/./src/mem.o
 .rodata.__FUNCTION__.5273
                0x0000000000000000        0xb ./build/./src/mem.o
 .text          0x0000000000000000        0x0 ./build/./src/mempool.o
 .data          0x0000000000000000        0x0 ./build/./src/mempool.o
 .bss           0x0000000000000000        0x0 ./build/./src/mempool.o
 .text.rt_list_init
                0x0000000000000000       0x20 ./build/./src/mempool.o
 .text.rt_list_insert_after
                0x0000000000000000       0x30 ./build/./src/mempool.o
 .text.rt_list_isempty
                0x0000000000000000       0x22 ./build/./src/mempool.o
 .bss.rt_mp_alloc_hook
                0x0000000000000000        0x4 ./build/./src/mempool.o
 .bss.rt_mp_free_hook
                0x0000000000000000        0x4 ./build/./src/mempool.o
 .text.rt_mp_alloc_sethook
                0x0000000000000000       0x1c ./build/./src/mempool.o
 .text.rt_mp_free_sethook
                0x0000000000000000       0x1c ./build/./src/mempool.o
 .rodata        0x0000000000000000      0x14d ./build/./src/mempool.o
 .text.rt_mp_init
                0x0000000000000000      0x10c ./build/./src/mempool.o
 .text.rt_mp_detach
                0x0000000000000000       0xa4 ./build/./src/mempool.o
 .text.rt_mp_create
                0x0000000000000000      0x134 ./build/./src/mempool.o
 .text.rt_mp_delete
                0x0000000000000000       0xe4 ./build/./src/mempool.o
 .text.rt_mp_alloc
                0x0000000000000000      0x168 ./build/./src/mempool.o
 .text.rt_mp_free
                0x0000000000000000       0x90 ./build/./src/mempool.o
 .rodata.__FUNCTION__.5231
                0x0000000000000000        0xb ./build/./src/mempool.o
 .rodata.__FUNCTION__.5240
                0x0000000000000000        0xd ./build/./src/mempool.o
 .rodata.__FUNCTION__.5253
                0x0000000000000000        0xd ./build/./src/mempool.o
 .rodata.__FUNCTION__.5263
                0x0000000000000000        0xd ./build/./src/mempool.o
 .rodata.__FUNCTION__.5275
                0x0000000000000000        0xc ./build/./src/mempool.o
 .debug_info    0x0000000000000000      0x963 ./build/./src/mempool.o
 .debug_abbrev  0x0000000000000000      0x251 ./build/./src/mempool.o
 .debug_loc     0x0000000000000000      0x3ac ./build/./src/mempool.o
 .debug_aranges
                0x0000000000000000       0x70 ./build/./src/mempool.o
 .debug_ranges  0x0000000000000000       0x60 ./build/./src/mempool.o
 .debug_line    0x0000000000000000      0x2da ./build/./src/mempool.o
 .debug_str     0x0000000000000000      0x604 ./build/./src/mempool.o
 .comment       0x0000000000000000       0x32 ./build/./src/mempool.o
 .debug_frame   0x0000000000000000      0x1c8 ./build/./src/mempool.o
 .ARM.attributes
                0x0000000000000000       0x33 ./build/./src/mempool.o
 .text          0x0000000000000000        0x0 ./build/./src/object.o
 .data          0x0000000000000000        0x0 ./build/./src/object.o
 .bss           0x0000000000000000        0x0 ./build/./src/object.o
 .text.rt_object_attach_sethook
                0x0000000000000000       0x1c ./build/./src/object.o
 .text.rt_object_detach_sethook
                0x0000000000000000       0x1c ./build/./src/object.o
 .text.rt_object_trytake_sethook
                0x0000000000000000       0x1c ./build/./src/object.o
 .text.rt_object_take_sethook
                0x0000000000000000       0x1c ./build/./src/object.o
 .text.rt_object_put_sethook
                0x0000000000000000       0x1c ./build/./src/object.o
 .text.rt_system_object_init
                0x0000000000000000        0xc ./build/./src/object.o
 .text.rt_object_get_length
                0x0000000000000000       0x62 ./build/./src/object.o
 .text.rt_object_get_pointers
                0x0000000000000000       0x8e ./build/./src/object.o
 .text.rt_object_find
                0x0000000000000000       0xb4 ./build/./src/object.o
 .rodata.__FUNCTION__.5329
                0x0000000000000000        0xf ./build/./src/object.o
 .text          0x0000000000000000        0x0 ./build/./src/scheduler.o
 .data          0x0000000000000000        0x0 ./build/./src/scheduler.o
 .bss           0x0000000000000000        0x0 ./build/./src/scheduler.o
 .text.rt_scheduler_sethook
                0x0000000000000000       0x1c ./build/./src/scheduler.o
 .text.rt_critical_level
                0x0000000000000000       0x18 ./build/./src/scheduler.o
 .text          0x0000000000000000        0x0 ./build/./src/signal.o
 .data          0x0000000000000000        0x0 ./build/./src/signal.o
 .bss           0x0000000000000000        0x0 ./build/./src/signal.o
 .debug_info    0x0000000000000000      0x12b ./build/./src/signal.o
 .debug_abbrev  0x0000000000000000       0x9c ./build/./src/signal.o
 .debug_aranges
                0x0000000000000000       0x18 ./build/./src/signal.o
 .debug_line    0x0000000000000000       0x70 ./build/./src/signal.o
 .debug_str     0x0000000000000000      0x1b2 ./build/./src/signal.o
 .comment       0x0000000000000000       0x32 ./build/./src/signal.o
 .ARM.attributes
                0x0000000000000000       0x33 ./build/./src/signal.o
 .text          0x0000000000000000        0x0 ./build/./src/thread.o
 .data          0x0000000000000000        0x0 ./build/./src/thread.o
 .bss           0x0000000000000000        0x0 ./build/./src/thread.o
 .text.rt_thread_suspend_sethook
                0x0000000000000000       0x1c ./build/./src/thread.o
 .text.rt_thread_resume_sethook
                0x0000000000000000       0x1c ./build/./src/thread.o
 .text.rt_thread_inited_sethook
                0x0000000000000000       0x1c ./build/./src/thread.o
 .text.rt_thread_detach
                0x0000000000000000       0xc4 ./build/./src/thread.o
 .text.rt_thread_delete
                0x0000000000000000       0xa8 ./build/./src/thread.o
 .text.rt_thread_delay
                0x0000000000000000       0x18 ./build/./src/thread.o
 .text.rt_thread_delay_until
                0x0000000000000000       0xdc ./build/./src/thread.o
 .text.rt_thread_control
                0x0000000000000000       0xd4 ./build/./src/thread.o
 .text.rt_thread_find
                0x0000000000000000       0x94 ./build/./src/thread.o
 .rodata.__FUNCTION__.5267
                0x0000000000000000       0x11 ./build/./src/thread.o
 .rodata.__FUNCTION__.5283
                0x0000000000000000       0x11 ./build/./src/thread.o
 .rodata.__FUNCTION__.5302
                0x0000000000000000       0x16 ./build/./src/thread.o
 .rodata.__FUNCTION__.5313
                0x0000000000000000       0x12 ./build/./src/thread.o
 .rodata.__FUNCTION__.5341
                0x0000000000000000        0xf ./build/./src/thread.o
 .text          0x0000000000000000        0x0 ./build/./src/timer.o
 .data          0x0000000000000000        0x0 ./build/./src/timer.o
 .bss           0x0000000000000000        0x0 ./build/./src/timer.o
 .text.rt_timer_enter_sethook
                0x0000000000000000       0x1c ./build/./src/timer.o
 .text.rt_timer_exit_sethook
                0x0000000000000000       0x1c ./build/./src/timer.o
 .text.rt_timer_list_next_timeout
                0x0000000000000000       0x3e ./build/./src/timer.o
 .text.rt_timer_create
                0x0000000000000000       0x3e ./build/./src/timer.o
 .text.rt_timer_delete
                0x0000000000000000       0x80 ./build/./src/timer.o
 .text.rt_timer_next_timeout_tick
                0x0000000000000000       0x14 ./build/./src/timer.o
 .rodata.__FUNCTION__.5276
                0x0000000000000000       0x10 ./build/./src/timer.o
 .text          0x0000000000000000       0x14 ./build/./bsp/stm32/libraries/STM32F1xx_HAL/CMSIS/Device/ST/STM32F1xx/Source/Templates/gcc/startup_stm32f103xb.o
 .data          0x0000000000000000        0x0 ./build/./bsp/stm32/libraries/STM32F1xx_HAL/CMSIS/Device/ST/STM32F1xx/Source/Templates/gcc/startup_stm32f103xb.o
 .bss           0x0000000000000000        0x0 ./build/./bsp/stm32/libraries/STM32F1xx_HAL/CMSIS/Device/ST/STM32F1xx/Source/Templates/gcc/startup_stm32f103xb.o
 .data          0x0000000000000000        0x0 ./build/./libcpu/arm/cortex-m3/context_gcc.o
 .bss           0x0000000000000000        0x0 ./build/./libcpu/arm/cortex-m3/context_gcc.o
 .text          0x0000000000000000      0x370 /usr/lib/gcc/arm-none-eabi/6.3.1/thumb/v7-m/libgcc.a(_arm_addsubdf3.o)
 .data          0x0000000000000000        0x0 /usr/lib/gcc/arm-none-eabi/6.3.1/thumb/v7-m/libgcc.a(_arm_addsubdf3.o)
 .bss           0x0000000000000000        0x0 /usr/lib/gcc/arm-none-eabi/6.3.1/thumb/v7-m/libgcc.a(_arm_addsubdf3.o)
 .debug_line    0x0000000000000000      0x183 /usr/lib/gcc/arm-none-eabi/6.3.1/thumb/v7-m/libgcc.a(_arm_addsubdf3.o)
 .debug_info    0x0000000000000000       0xc0 /usr/lib/gcc/arm-none-eabi/6.3.1/thumb/v7-m/libgcc.a(_arm_addsubdf3.o)
 .debug_abbrev  0x0000000000000000       0x14 /usr/lib/gcc/arm-none-eabi/6.3.1/thumb/v7-m/libgcc.a(_arm_addsubdf3.o)
 .debug_aranges
                0x0000000000000000       0x20 /usr/lib/gcc/arm-none-eabi/6.3.1/thumb/v7-m/libgcc.a(_arm_addsubdf3.o)
 .debug_frame   0x0000000000000000       0xac /usr/lib/gcc/arm-none-eabi/6.3.1/thumb/v7-m/libgcc.a(_arm_addsubdf3.o)
 .ARM.attributes
                0x0000000000000000       0x1d /usr/lib/gcc/arm-none-eabi/6.3.1/thumb/v7-m/libgcc.a(_arm_addsubdf3.o)
 .text          0x0000000000000000      0x424 /usr/lib/gcc/arm-none-eabi/6.3.1/thumb/v7-m/libgcc.a(_arm_muldivdf3.o)
 .data          0x0000000000000000        0x0 /usr/lib/gcc/arm-none-eabi/6.3.1/thumb/v7-m/libgcc.a(_arm_muldivdf3.o)
 .bss           0x0000000000000000        0x0 /usr/lib/gcc/arm-none-eabi/6.3.1/thumb/v7-m/libgcc.a(_arm_muldivdf3.o)
 .debug_line    0x0000000000000000      0x19f /usr/lib/gcc/arm-none-eabi/6.3.1/thumb/v7-m/libgcc.a(_arm_muldivdf3.o)
 .debug_info    0x0000000000000000       0xc0 /usr/lib/gcc/arm-none-eabi/6.3.1/thumb/v7-m/libgcc.a(_arm_muldivdf3.o)
 .debug_abbrev  0x0000000000000000       0x14 /usr/lib/gcc/arm-none-eabi/6.3.1/thumb/v7-m/libgcc.a(_arm_muldivdf3.o)
 .debug_aranges
                0x0000000000000000       0x20 /usr/lib/gcc/arm-none-eabi/6.3.1/thumb/v7-m/libgcc.a(_arm_muldivdf3.o)
 .debug_frame   0x0000000000000000       0x50 /usr/lib/gcc/arm-none-eabi/6.3.1/thumb/v7-m/libgcc.a(_arm_muldivdf3.o)
 .ARM.attributes
                0x0000000000000000       0x1d /usr/lib/gcc/arm-none-eabi/6.3.1/thumb/v7-m/libgcc.a(_arm_muldivdf3.o)
 .text          0x0000000000000000       0x50 /usr/lib/gcc/arm-none-eabi/6.3.1/thumb/v7-m/libgcc.a(_arm_fixdfsi.o)
 .data          0x0000000000000000        0x0 /usr/lib/gcc/arm-none-eabi/6.3.1/thumb/v7-m/libgcc.a(_arm_fixdfsi.o)
 .bss           0x0000000000000000        0x0 /usr/lib/gcc/arm-none-eabi/6.3.1/thumb/v7-m/libgcc.a(_arm_fixdfsi.o)
 .debug_line    0x0000000000000000       0x7a /usr/lib/gcc/arm-none-eabi/6.3.1/thumb/v7-m/libgcc.a(_arm_fixdfsi.o)
 .debug_info    0x0000000000000000       0xc0 /usr/lib/gcc/arm-none-eabi/6.3.1/thumb/v7-m/libgcc.a(_arm_fixdfsi.o)
 .debug_abbrev  0x0000000000000000       0x14 /usr/lib/gcc/arm-none-eabi/6.3.1/thumb/v7-m/libgcc.a(_arm_fixdfsi.o)
 .debug_aranges
                0x0000000000000000       0x20 /usr/lib/gcc/arm-none-eabi/6.3.1/thumb/v7-m/libgcc.a(_arm_fixdfsi.o)
 .debug_frame   0x0000000000000000       0x24 /usr/lib/gcc/arm-none-eabi/6.3.1/thumb/v7-m/libgcc.a(_arm_fixdfsi.o)
 .ARM.attributes
                0x0000000000000000       0x1d /usr/lib/gcc/arm-none-eabi/6.3.1/thumb/v7-m/libgcc.a(_arm_fixdfsi.o)
 .data          0x0000000000000000        0x0 /usr/lib/gcc/arm-none-eabi/6.3.1/../../../arm-none-eabi/lib/thumb/v7-m/libc.a(lib_a-atexit.o)
 .bss           0x0000000000000000        0x0 /usr/lib/gcc/arm-none-eabi/6.3.1/../../../arm-none-eabi/lib/thumb/v7-m/libc.a(lib_a-atexit.o)
 .text          0x0000000000000000       0x20 /usr/lib/gcc/arm-none-eabi/6.3.1/../../../arm-none-eabi/lib/thumb/v7-m/libc.a(lib_a-exit.o)
 .data          0x0000000000000000        0x0 /usr/lib/gcc/arm-none-eabi/6.3.1/../../../arm-none-eabi/lib/thumb/v7-m/libc.a(lib_a-exit.o)
 .bss           0x0000000000000000        0x0 /usr/lib/gcc/arm-none-eabi/6.3.1/../../../arm-none-eabi/lib/thumb/v7-m/libc.a(lib_a-exit.o)
 .debug_info    0x0000000000000000      0x93d /usr/lib/gcc/arm-none-eabi/6.3.1/../../../arm-none-eabi/lib/thumb/v7-m/libc.a(lib_a-exit.o)
 .debug_abbrev  0x0000000000000000      0x1e7 /usr/lib/gcc/arm-none-eabi/6.3.1/../../../arm-none-eabi/lib/thumb/v7-m/libc.a(lib_a-exit.o)
 .debug_loc     0x0000000000000000       0x1e /usr/lib/gcc/arm-none-eabi/6.3.1/../../../arm-none-eabi/lib/thumb/v7-m/libc.a(lib_a-exit.o)
 .debug_aranges
                0x0000000000000000       0x20 /usr/lib/gcc/arm-none-eabi/6.3.1/../../../arm-none-eabi/lib/thumb/v7-m/libc.a(lib_a-exit.o)
 .debug_line    0x0000000000000000      0x162 /usr/lib/gcc/arm-none-eabi/6.3.1/../../../arm-none-eabi/lib/thumb/v7-m/libc.a(lib_a-exit.o)
 .debug_str     0x0000000000000000      0x5b0 /usr/lib/gcc/arm-none-eabi/6.3.1/../../../arm-none-eabi/lib/thumb/v7-m/libc.a(lib_a-exit.o)
 .comment       0x0000000000000000       0x32 /usr/lib/gcc/arm-none-eabi/6.3.1/../../../arm-none-eabi/lib/thumb/v7-m/libc.a(lib_a-exit.o)
 .debug_frame   0x0000000000000000       0x28 /usr/lib/gcc/arm-none-eabi/6.3.1/../../../arm-none-eabi/lib/thumb/v7-m/libc.a(lib_a-exit.o)
 .ARM.attributes
                0x0000000000000000       0x2d /usr/lib/gcc/arm-none-eabi/6.3.1/../../../arm-none-eabi/lib/thumb/v7-m/libc.a(lib_a-exit.o)
 .data          0x0000000000000000        0x0 /usr/lib/gcc/arm-none-eabi/6.3.1/../../../arm-none-eabi/lib/thumb/v7-m/libc.a(lib_a-fini.o)
 .bss           0x0000000000000000        0x0 /usr/lib/gcc/arm-none-eabi/6.3.1/../../../arm-none-eabi/lib/thumb/v7-m/libc.a(lib_a-fini.o)
 .text          0x0000000000000000        0x0 /usr/lib/gcc/arm-none-eabi/6.3.1/../../../arm-none-eabi/lib/thumb/v7-m/libc.a(lib_a-impure.o)
 .bss           0x0000000000000000        0x0 /usr/lib/gcc/arm-none-eabi/6.3.1/../../../arm-none-eabi/lib/thumb/v7-m/libc.a(lib_a-impure.o)
 .text          0x0000000000000000       0x50 /usr/lib/gcc/arm-none-eabi/6.3.1/../../../arm-none-eabi/lib/thumb/v7-m/libc.a(lib_a-init.o)
 .data          0x0000000000000000        0x0 /usr/lib/gcc/arm-none-eabi/6.3.1/../../../arm-none-eabi/lib/thumb/v7-m/libc.a(lib_a-init.o)
 .bss           0x0000000000000000        0x0 /usr/lib/gcc/arm-none-eabi/6.3.1/../../../arm-none-eabi/lib/thumb/v7-m/libc.a(lib_a-init.o)
 .debug_info    0x0000000000000000      0x110 /usr/lib/gcc/arm-none-eabi/6.3.1/../../../arm-none-eabi/lib/thumb/v7-m/libc.a(lib_a-init.o)
 .debug_abbrev  0x0000000000000000       0xba /usr/lib/gcc/arm-none-eabi/6.3.1/../../../arm-none-eabi/lib/thumb/v7-m/libc.a(lib_a-init.o)
 .debug_loc     0x0000000000000000       0xae /usr/lib/gcc/arm-none-eabi/6.3.1/../../../arm-none-eabi/lib/thumb/v7-m/libc.a(lib_a-init.o)
 .debug_aranges
                0x0000000000000000       0x20 /usr/lib/gcc/arm-none-eabi/6.3.1/../../../arm-none-eabi/lib/thumb/v7-m/libc.a(lib_a-init.o)
 .debug_line    0x0000000000000000       0xb9 /usr/lib/gcc/arm-none-eabi/6.3.1/../../../arm-none-eabi/lib/thumb/v7-m/libc.a(lib_a-init.o)
 .debug_str     0x0000000000000000      0x1f2 /usr/lib/gcc/arm-none-eabi/6.3.1/../../../arm-none-eabi/lib/thumb/v7-m/libc.a(lib_a-init.o)
 .comment       0x0000000000000000       0x32 /usr/lib/gcc/arm-none-eabi/6.3.1/../../../arm-none-eabi/lib/thumb/v7-m/libc.a(lib_a-init.o)
 .debug_frame   0x0000000000000000       0x2c /usr/lib/gcc/arm-none-eabi/6.3.1/../../../arm-none-eabi/lib/thumb/v7-m/libc.a(lib_a-init.o)
 .ARM.attributes
                0x0000000000000000       0x2d /usr/lib/gcc/arm-none-eabi/6.3.1/../../../arm-none-eabi/lib/thumb/v7-m/libc.a(lib_a-init.o)
 .data          0x0000000000000000        0x0 /usr/lib/gcc/arm-none-eabi/6.3.1/../../../arm-none-eabi/lib/thumb/v7-m/libc.a(lib_a-__atexit.o)
 .bss           0x0000000000000000        0x0 /usr/lib/gcc/arm-none-eabi/6.3.1/../../../arm-none-eabi/lib/thumb/v7-m/libc.a(lib_a-__atexit.o)
 .text          0x0000000000000000       0xd4 /usr/lib/gcc/arm-none-eabi/6.3.1/../../../arm-none-eabi/lib/thumb/v7-m/libc.a(lib_a-__call_atexit.o)
 .data          0x0000000000000000        0x0 /usr/lib/gcc/arm-none-eabi/6.3.1/../../../arm-none-eabi/lib/thumb/v7-m/libc.a(lib_a-__call_atexit.o)
 .bss           0x0000000000000000        0x0 /usr/lib/gcc/arm-none-eabi/6.3.1/../../../arm-none-eabi/lib/thumb/v7-m/libc.a(lib_a-__call_atexit.o)
 .text          0x0000000000000000        0x0 /usr/lib/gcc/arm-none-eabi/6.3.1/thumb/v7-m/crtend.o
 .data          0x0000000000000000        0x0 /usr/lib/gcc/arm-none-eabi/6.3.1/thumb/v7-m/crtend.o
 .bss           0x0000000000000000        0x0 /usr/lib/gcc/arm-none-eabi/6.3.1/thumb/v7-m/crtend.o
 .eh_frame      0x0000000000000000        0x4 /usr/lib/gcc/arm-none-eabi/6.3.1/thumb/v7-m/crtend.o
 .jcr           0x0000000000000000        0x4 /usr/lib/gcc/arm-none-eabi/6.3.1/thumb/v7-m/crtend.o
 .text          0x0000000000000000        0x0 /usr/lib/gcc/arm-none-eabi/6.3.1/thumb/v7-m/crtn.o
 .data          0x0000000000000000        0x0 /usr/lib/gcc/arm-none-eabi/6.3.1/thumb/v7-m/crtn.o
 .bss           0x0000000000000000        0x0 /usr/lib/gcc/arm-none-eabi/6.3.1/thumb/v7-m/crtn.o
 .init          0x0000000000000000        0x8 /usr/lib/gcc/arm-none-eabi/6.3.1/thumb/v7-m/crtn.o
 .fini          0x0000000000000000        0x8 /usr/lib/gcc/arm-none-eabi/6.3.1/thumb/v7-m/crtn.o
 .ARM.attributes
                0x0000000000000000       0x1d /usr/lib/gcc/arm-none-eabi/6.3.1/thumb/v7-m/crtn.o

Memory Configuration

Name             Origin             Length             Attributes
ROM              0x0000000008000000 0x0000000000010000 xr
RAM              0x0000000020000000 0x0000000000005000 rw
*default*        0x0000000000000000 0xffffffffffffffff

Linker script and memory map

LOAD /usr/lib/gcc/arm-none-eabi/6.3.1/thumb/v7-m/crti.o
LOAD /usr/lib/gcc/arm-none-eabi/6.3.1/thumb/v7-m/crtbegin.o
LOAD /usr/lib/gcc/arm-none-eabi/6.3.1/../../../arm-none-eabi/lib/thumb/v7-m/crt0.o
LOAD ./build/./bsp/stm32/libraries/HAL_Drivers/drv_common.o
LOAD ./build/./bsp/stm32/libraries/HAL_Drivers/drv_gpio.o
LOAD ./build/./bsp/stm32/libraries/HAL_Drivers/drv_usart.o
LOAD ./build/./bsp/stm32/libraries/STM32F1xx_HAL/CMSIS/Device/ST/STM32F1xx/Source/Templates/system_stm32f1xx.o
LOAD ./build/./bsp/stm32/libraries/STM32F1xx_HAL/STM32F1xx_HAL_Driver/Src/stm32f1xx_hal.o
LOAD ./build/./bsp/stm32/libraries/STM32F1xx_HAL/STM32F1xx_HAL_Driver/Src/stm32f1xx_hal_cec.o
LOAD ./build/./bsp/stm32/libraries/STM32F1xx_HAL/STM32F1xx_HAL_Driver/Src/stm32f1xx_hal_cortex.o
LOAD ./build/./bsp/stm32/libraries/STM32F1xx_HAL/STM32F1xx_HAL_Driver/Src/stm32f1xx_hal_crc.o
LOAD ./build/./bsp/stm32/libraries/STM32F1xx_HAL/STM32F1xx_HAL_Driver/Src/stm32f1xx_hal_dma.o
LOAD ./build/./bsp/stm32/libraries/STM32F1xx_HAL/STM32F1xx_HAL_Driver/Src/stm32f1xx_hal_gpio.o
LOAD ./build/./bsp/stm32/libraries/STM32F1xx_HAL/STM32F1xx_HAL_Driver/Src/stm32f1xx_hal_gpio_ex.o
LOAD ./build/./bsp/stm32/libraries/STM32F1xx_HAL/STM32F1xx_HAL_Driver/Src/stm32f1xx_hal_pwr.o
LOAD ./build/./bsp/stm32/libraries/STM32F1xx_HAL/STM32F1xx_HAL_Driver/Src/stm32f1xx_hal_rcc.o
LOAD ./build/./bsp/stm32/libraries/STM32F1xx_HAL/STM32F1xx_HAL_Driver/Src/stm32f1xx_hal_rcc_ex.o
LOAD ./build/./bsp/stm32/libraries/STM32F1xx_HAL/STM32F1xx_HAL_Driver/Src/stm32f1xx_hal_uart.o
LOAD ./build/./bsp/stm32/libraries/STM32F1xx_HAL/STM32F1xx_HAL_Driver/Src/stm32f1xx_hal_usart.o
LOAD ./build/bsp/applications/main.o
LOAD ./build/bsp/board/CubeMX_Config/Src/stm32f1xx_hal_msp.o
LOAD ./build/bsp/board/board.o
LOAD ./build/./components/drivers/misc/pin.o
LOAD ./build/./components/drivers/serial/serial.o
LOAD ./build/./components/drivers/src/completion.o
LOAD ./build/./components/drivers/src/dataqueue.o
LOAD ./build/./components/drivers/src/pipe.o
LOAD ./build/./components/drivers/src/ringblk_buf.o
LOAD ./build/./components/drivers/src/ringbuffer.o
LOAD ./build/./components/drivers/src/waitqueue.o
LOAD ./build/./components/drivers/src/workqueue.o
LOAD ./build/./components/finsh/cmd.o
LOAD ./build/./components/finsh/msh.o
LOAD ./build/./components/finsh/shell.o
LOAD ./build/./components/libc/compilers/minilibc/ctype.o
LOAD ./build/./components/libc/compilers/minilibc/math.o
LOAD ./build/./components/libc/compilers/minilibc/qsort.o
LOAD ./build/./components/libc/compilers/minilibc/rand.o
LOAD ./build/./components/libc/compilers/minilibc/stdlib.o
LOAD ./build/./components/libc/compilers/minilibc/string.o
LOAD ./build/./components/libc/compilers/minilibc/time.o
LOAD ./build/./libcpu/arm/common/backtrace.o
LOAD ./build/./libcpu/arm/common/div0.o
LOAD ./build/./libcpu/arm/common/showmem.o
LOAD ./build/./libcpu/arm/cortex-m3/cpuport.o
LOAD ./build/./src/clock.o
LOAD ./build/./src/components.o
LOAD ./build/./src/device.o
LOAD ./build/./src/idle.o
LOAD ./build/./src/ipc.o
LOAD ./build/./src/irq.o
LOAD ./build/./src/kservice.o
LOAD ./build/./src/mem.o
LOAD ./build/./src/mempool.o
LOAD ./build/./src/object.o
LOAD ./build/./src/scheduler.o
LOAD ./build/./src/signal.o
LOAD ./build/./src/thread.o
LOAD ./build/./src/timer.o
LOAD ./build/./bsp/stm32/libraries/STM32F1xx_HAL/CMSIS/Device/ST/STM32F1xx/Source/Templates/gcc/startup_stm32f103xb.o
LOAD ./build/./libcpu/arm/cortex-m3/context_gcc.o
START GROUP
LOAD /usr/lib/gcc/arm-none-eabi/6.3.1/thumb/v7-m/libgcc.a
LOAD /usr/lib/gcc/arm-none-eabi/6.3.1/../../../arm-none-eabi/lib/thumb/v7-m/libc.a
END GROUP
LOAD /usr/lib/gcc/arm-none-eabi/6.3.1/thumb/v7-m/crtend.o
LOAD /usr/lib/gcc/arm-none-eabi/6.3.1/thumb/v7-m/crtn.o
                0x0000000000000200                _system_stack_size = 0x200

.text           0x0000000008000000     0xdd34
                0x0000000008000000                . = ALIGN (0x4)
                0x0000000008000000                _stext = .
 *(.isr_vector)
 .isr_vector    0x0000000008000000      0x10c ./build/./bsp/stm32/libraries/STM32F1xx_HAL/CMSIS/Device/ST/STM32F1xx/Source/Templates/gcc/startup_stm32f103xb.o
                0x0000000008000000                g_pfnVectors
                0x000000000800010c                . = ALIGN (0x4)
 *(.text)
 .text          0x000000000800010c       0xa4 /usr/lib/gcc/arm-none-eabi/6.3.1/thumb/v7-m/crtbegin.o
 .text          0x00000000080001b0      0x100 ./build/./libcpu/arm/cortex-m3/context_gcc.o
                0x00000000080001b0                rt_hw_interrupt_disable
                0x00000000080001b8                rt_hw_interrupt_enable
                0x00000000080001be                rt_hw_context_switch_interrupt
                0x00000000080001be                rt_hw_context_switch
                0x00000000080001de                PendSV_Handler
                0x000000000800021a                rt_hw_context_switch_to
                0x0000000008000256                rt_hw_interrupt_thread_switch
                0x000000000800025a                HardFault_Handler
                0x0000000008000290                rt_hw_interrupt_check
 .text          0x00000000080002b0        0xc /usr/lib/gcc/arm-none-eabi/6.3.1/../../../arm-none-eabi/lib/thumb/v7-m/libc.a(lib_a-atexit.o)
                0x00000000080002b0                atexit
 .text          0x00000000080002bc       0x34 /usr/lib/gcc/arm-none-eabi/6.3.1/../../../arm-none-eabi/lib/thumb/v7-m/libc.a(lib_a-fini.o)
                0x00000000080002bc                __libc_fini_array
 .text          0x00000000080002f0       0xac /usr/lib/gcc/arm-none-eabi/6.3.1/../../../arm-none-eabi/lib/thumb/v7-m/libc.a(lib_a-__atexit.o)
                0x00000000080002f0                __register_exitproc
 *(.text.*)
 .text.reboot   0x000000000800039c       0x18 ./build/./bsp/stm32/libraries/HAL_Drivers/drv_common.o
 .text.rt_hw_systick_init
                0x00000000080003b4       0x34 ./build/./bsp/stm32/libraries/HAL_Drivers/drv_common.o
                0x00000000080003b4                rt_hw_systick_init
 .text.SysTick_Handler
                0x00000000080003e8       0x18 ./build/./bsp/stm32/libraries/HAL_Drivers/drv_common.o
                0x00000000080003e8                SysTick_Handler
 .text.HAL_GetTick
                0x0000000008000400       0x24 ./build/./bsp/stm32/libraries/HAL_Drivers/drv_common.o
                0x0000000008000400                HAL_GetTick
 .text.HAL_InitTick
                0x0000000008000424       0x14 ./build/./bsp/stm32/libraries/HAL_Drivers/drv_common.o
                0x0000000008000424                HAL_InitTick
 .text._Error_Handler
                0x0000000008000438        0xc ./build/./bsp/stm32/libraries/HAL_Drivers/drv_common.o
                0x0000000008000438                _Error_Handler
 .text.rt_hw_board_init
                0x0000000008000444       0x54 ./build/./bsp/stm32/libraries/HAL_Drivers/drv_common.o
                0x0000000008000444                rt_hw_board_init
 .text.get_pin  0x0000000008000498       0x44 ./build/./bsp/stm32/libraries/HAL_Drivers/drv_gpio.o
 .text.stm32_pin_write
                0x00000000080004dc       0x3c ./build/./bsp/stm32/libraries/HAL_Drivers/drv_gpio.o
 .text.stm32_pin_read
                0x0000000008000518       0x44 ./build/./bsp/stm32/libraries/HAL_Drivers/drv_gpio.o
 .text.stm32_pin_mode
                0x000000000800055c       0x98 ./build/./bsp/stm32/libraries/HAL_Drivers/drv_gpio.o
 .text.bit2bitno
                0x00000000080005f4       0x3c ./build/./bsp/stm32/libraries/HAL_Drivers/drv_gpio.o
 .text.get_pin_irq_map
                0x0000000008000630       0x34 ./build/./bsp/stm32/libraries/HAL_Drivers/drv_gpio.o
 .text.stm32_pin_attach_irq
                0x0000000008000664      0x148 ./build/./bsp/stm32/libraries/HAL_Drivers/drv_gpio.o
 .text.stm32_pin_dettach_irq
                0x00000000080007ac       0xd0 ./build/./bsp/stm32/libraries/HAL_Drivers/drv_gpio.o
 .text.stm32_pin_irq_enable
                0x000000000800087c      0x1e0 ./build/./bsp/stm32/libraries/HAL_Drivers/drv_gpio.o
 .text.pin_irq_hdr
                0x0000000008000a5c       0x54 ./build/./bsp/stm32/libraries/HAL_Drivers/drv_gpio.o
 .text.HAL_GPIO_EXTI_Callback
                0x0000000008000ab0       0x22 ./build/./bsp/stm32/libraries/HAL_Drivers/drv_gpio.o
                0x0000000008000ab0                HAL_GPIO_EXTI_Callback
 .text.EXTI0_IRQHandler
                0x0000000008000ad2       0x16 ./build/./bsp/stm32/libraries/HAL_Drivers/drv_gpio.o
                0x0000000008000ad2                EXTI0_IRQHandler
 .text.EXTI1_IRQHandler
                0x0000000008000ae8       0x16 ./build/./bsp/stm32/libraries/HAL_Drivers/drv_gpio.o
                0x0000000008000ae8                EXTI1_IRQHandler
 .text.EXTI2_IRQHandler
                0x0000000008000afe       0x16 ./build/./bsp/stm32/libraries/HAL_Drivers/drv_gpio.o
                0x0000000008000afe                EXTI2_IRQHandler
 .text.EXTI3_IRQHandler
                0x0000000008000b14       0x16 ./build/./bsp/stm32/libraries/HAL_Drivers/drv_gpio.o
                0x0000000008000b14                EXTI3_IRQHandler
 .text.EXTI4_IRQHandler
                0x0000000008000b2a       0x16 ./build/./bsp/stm32/libraries/HAL_Drivers/drv_gpio.o
                0x0000000008000b2a                EXTI4_IRQHandler
 .text.EXTI9_5_IRQHandler
                0x0000000008000b40       0x32 ./build/./bsp/stm32/libraries/HAL_Drivers/drv_gpio.o
                0x0000000008000b40                EXTI9_5_IRQHandler
 .text.EXTI15_10_IRQHandler
                0x0000000008000b72       0x40 ./build/./bsp/stm32/libraries/HAL_Drivers/drv_gpio.o
                0x0000000008000b72                EXTI15_10_IRQHandler
 *fill*         0x0000000008000bb2        0x2 00000000
 .text.rt_hw_pin_init
                0x0000000008000bb4       0xa0 ./build/./bsp/stm32/libraries/HAL_Drivers/drv_gpio.o
                0x0000000008000bb4                rt_hw_pin_init
 .text.__NVIC_EnableIRQ
                0x0000000008000c54       0x38 ./build/./bsp/stm32/libraries/HAL_Drivers/drv_usart.o
 .text.__NVIC_DisableIRQ
                0x0000000008000c8c       0x44 ./build/./bsp/stm32/libraries/HAL_Drivers/drv_usart.o
 .text.stm32_configure
                0x0000000008000cd0      0x11c ./build/./bsp/stm32/libraries/HAL_Drivers/drv_usart.o
 .text.stm32_control
                0x0000000008000dec      0x174 ./build/./bsp/stm32/libraries/HAL_Drivers/drv_usart.o
 .text.stm32_putc
                0x0000000008000f60       0x58 ./build/./bsp/stm32/libraries/HAL_Drivers/drv_usart.o
 .text.stm32_getc
                0x0000000008000fb8       0x50 ./build/./bsp/stm32/libraries/HAL_Drivers/drv_usart.o
 .text.stm32_dma_transmit
                0x0000000008001008       0x7c ./build/./bsp/stm32/libraries/HAL_Drivers/drv_usart.o
 .text.uart_isr
                0x0000000008001084      0x22c ./build/./bsp/stm32/libraries/HAL_Drivers/drv_usart.o
 .text.dma_isr  0x00000000080012b0       0xb8 ./build/./bsp/stm32/libraries/HAL_Drivers/drv_usart.o
 .text.USART1_IRQHandler
                0x0000000008001368       0x1c ./build/./bsp/stm32/libraries/HAL_Drivers/drv_usart.o
                0x0000000008001368                USART1_IRQHandler
 .text.DMA1_Channel5_IRQHandler
                0x0000000008001384       0x1c ./build/./bsp/stm32/libraries/HAL_Drivers/drv_usart.o
                0x0000000008001384                DMA1_Channel5_IRQHandler
 .text.stm32_uart_get_dma_config
                0x00000000080013a0       0x38 ./build/./bsp/stm32/libraries/HAL_Drivers/drv_usart.o
 .text.stm32_dma_config
                0x00000000080013d8      0x1d0 ./build/./bsp/stm32/libraries/HAL_Drivers/drv_usart.o
 .text.HAL_UART_ErrorCallback
                0x00000000080015a8       0x30 ./build/./bsp/stm32/libraries/HAL_Drivers/drv_usart.o
                0x00000000080015a8                HAL_UART_ErrorCallback
 .text.HAL_UART_RxCpltCallback
                0x00000000080015d8       0x38 ./build/./bsp/stm32/libraries/HAL_Drivers/drv_usart.o
                0x00000000080015d8                HAL_UART_RxCpltCallback
 .text.HAL_UART_RxHalfCpltCallback
                0x0000000008001610       0x38 ./build/./bsp/stm32/libraries/HAL_Drivers/drv_usart.o
                0x0000000008001610                HAL_UART_RxHalfCpltCallback
 .text._dma_tx_complete
                0x0000000008001648       0x54 ./build/./bsp/stm32/libraries/HAL_Drivers/drv_usart.o
 .text.HAL_UART_TxCpltCallback
                0x000000000800169c       0x38 ./build/./bsp/stm32/libraries/HAL_Drivers/drv_usart.o
                0x000000000800169c                HAL_UART_TxCpltCallback
 .text.rt_hw_usart_init
                0x00000000080016d4      0x108 ./build/./bsp/stm32/libraries/HAL_Drivers/drv_usart.o
                0x00000000080016d4                rt_hw_usart_init
 .text.SystemInit
                0x00000000080017dc       0x68 ./build/./bsp/stm32/libraries/STM32F1xx_HAL/CMSIS/Device/ST/STM32F1xx/Source/Templates/system_stm32f1xx.o
                0x00000000080017dc                SystemInit
 .text.HAL_Init
                0x0000000008001844       0x2c ./build/./bsp/stm32/libraries/STM32F1xx_HAL/STM32F1xx_HAL_Driver/Src/stm32f1xx_hal.o
                0x0000000008001844                HAL_Init
 .text.HAL_IncTick
                0x0000000008001870       0x24 ./build/./bsp/stm32/libraries/STM32F1xx_HAL/STM32F1xx_HAL_Driver/Src/stm32f1xx_hal.o
                0x0000000008001870                HAL_IncTick
 .text.__NVIC_SetPriorityGrouping
                0x0000000008001894       0x48 ./build/./bsp/stm32/libraries/STM32F1xx_HAL/STM32F1xx_HAL_Driver/Src/stm32f1xx_hal_cortex.o
 .text.__NVIC_GetPriorityGrouping
                0x00000000080018dc       0x1c ./build/./bsp/stm32/libraries/STM32F1xx_HAL/STM32F1xx_HAL_Driver/Src/stm32f1xx_hal_cortex.o
 .text.__NVIC_EnableIRQ
                0x00000000080018f8       0x38 ./build/./bsp/stm32/libraries/STM32F1xx_HAL/STM32F1xx_HAL_Driver/Src/stm32f1xx_hal_cortex.o
 .text.__NVIC_DisableIRQ
                0x0000000008001930       0x44 ./build/./bsp/stm32/libraries/STM32F1xx_HAL/STM32F1xx_HAL_Driver/Src/stm32f1xx_hal_cortex.o
 .text.__NVIC_SetPriority
                0x0000000008001974       0x54 ./build/./bsp/stm32/libraries/STM32F1xx_HAL/STM32F1xx_HAL_Driver/Src/stm32f1xx_hal_cortex.o
 .text.NVIC_EncodePriority
                0x00000000080019c8       0x60 ./build/./bsp/stm32/libraries/STM32F1xx_HAL/STM32F1xx_HAL_Driver/Src/stm32f1xx_hal_cortex.o
 .text.SysTick_Config
                0x0000000008001a28       0x44 ./build/./bsp/stm32/libraries/STM32F1xx_HAL/STM32F1xx_HAL_Driver/Src/stm32f1xx_hal_cortex.o
 .text.HAL_NVIC_SetPriorityGrouping
                0x0000000008001a6c       0x16 ./build/./bsp/stm32/libraries/STM32F1xx_HAL/STM32F1xx_HAL_Driver/Src/stm32f1xx_hal_cortex.o
                0x0000000008001a6c                HAL_NVIC_SetPriorityGrouping
 .text.HAL_NVIC_SetPriority
                0x0000000008001a82       0x38 ./build/./bsp/stm32/libraries/STM32F1xx_HAL/STM32F1xx_HAL_Driver/Src/stm32f1xx_hal_cortex.o
                0x0000000008001a82                HAL_NVIC_SetPriority
 .text.HAL_NVIC_EnableIRQ
                0x0000000008001aba       0x1c ./build/./bsp/stm32/libraries/STM32F1xx_HAL/STM32F1xx_HAL_Driver/Src/stm32f1xx_hal_cortex.o
                0x0000000008001aba                HAL_NVIC_EnableIRQ
 .text.HAL_NVIC_DisableIRQ
                0x0000000008001ad6       0x1c ./build/./bsp/stm32/libraries/STM32F1xx_HAL/STM32F1xx_HAL_Driver/Src/stm32f1xx_hal_cortex.o
                0x0000000008001ad6                HAL_NVIC_DisableIRQ
 .text.HAL_SYSTICK_Config
                0x0000000008001af2       0x18 ./build/./bsp/stm32/libraries/STM32F1xx_HAL/STM32F1xx_HAL_Driver/Src/stm32f1xx_hal_cortex.o
                0x0000000008001af2                HAL_SYSTICK_Config
 *fill*         0x0000000008001b0a        0x2 00000000
 .text.HAL_SYSTICK_CLKSourceConfig
                0x0000000008001b0c       0x38 ./build/./bsp/stm32/libraries/STM32F1xx_HAL/STM32F1xx_HAL_Driver/Src/stm32f1xx_hal_cortex.o
                0x0000000008001b0c                HAL_SYSTICK_CLKSourceConfig
 .text.HAL_DMA_Init
                0x0000000008001b44       0xb4 ./build/./bsp/stm32/libraries/STM32F1xx_HAL/STM32F1xx_HAL_Driver/Src/stm32f1xx_hal_dma.o
                0x0000000008001b44                HAL_DMA_Init
 .text.HAL_DMA_DeInit
                0x0000000008001bf8       0xb8 ./build/./bsp/stm32/libraries/STM32F1xx_HAL/STM32F1xx_HAL_Driver/Src/stm32f1xx_hal_dma.o
                0x0000000008001bf8                HAL_DMA_DeInit
 .text.HAL_DMA_Start_IT
                0x0000000008001cb0       0xbe ./build/./bsp/stm32/libraries/STM32F1xx_HAL/STM32F1xx_HAL_Driver/Src/stm32f1xx_hal_dma.o
                0x0000000008001cb0                HAL_DMA_Start_IT
 .text.HAL_DMA_Abort
                0x0000000008001d6e       0x74 ./build/./bsp/stm32/libraries/STM32F1xx_HAL/STM32F1xx_HAL_Driver/Src/stm32f1xx_hal_dma.o
                0x0000000008001d6e                HAL_DMA_Abort
 *fill*         0x0000000008001de2        0x2 00000000
 .text.HAL_DMA_Abort_IT
                0x0000000008001de4       0xf8 ./build/./bsp/stm32/libraries/STM32F1xx_HAL/STM32F1xx_HAL_Driver/Src/stm32f1xx_hal_dma.o
                0x0000000008001de4                HAL_DMA_Abort_IT
 .text.HAL_DMA_IRQHandler
                0x0000000008001edc      0x224 ./build/./bsp/stm32/libraries/STM32F1xx_HAL/STM32F1xx_HAL_Driver/Src/stm32f1xx_hal_dma.o
                0x0000000008001edc                HAL_DMA_IRQHandler
 .text.DMA_SetConfig
                0x0000000008002100       0x5a ./build/./bsp/stm32/libraries/STM32F1xx_HAL/STM32F1xx_HAL_Driver/Src/stm32f1xx_hal_dma.o
 *fill*         0x000000000800215a        0x2 00000000
 .text.HAL_GPIO_Init
                0x000000000800215c      0x2b4 ./build/./bsp/stm32/libraries/STM32F1xx_HAL/STM32F1xx_HAL_Driver/Src/stm32f1xx_hal_gpio.o
                0x000000000800215c                HAL_GPIO_Init
 .text.HAL_GPIO_DeInit
                0x0000000008002410      0x178 ./build/./bsp/stm32/libraries/STM32F1xx_HAL/STM32F1xx_HAL_Driver/Src/stm32f1xx_hal_gpio.o
                0x0000000008002410                HAL_GPIO_DeInit
 .text.HAL_GPIO_ReadPin
                0x0000000008002588       0x2e ./build/./bsp/stm32/libraries/STM32F1xx_HAL/STM32F1xx_HAL_Driver/Src/stm32f1xx_hal_gpio.o
                0x0000000008002588                HAL_GPIO_ReadPin
 .text.HAL_GPIO_WritePin
                0x00000000080025b6       0x30 ./build/./bsp/stm32/libraries/STM32F1xx_HAL/STM32F1xx_HAL_Driver/Src/stm32f1xx_hal_gpio.o
                0x00000000080025b6                HAL_GPIO_WritePin
 *fill*         0x00000000080025e6        0x2 00000000
 .text.HAL_GPIO_EXTI_IRQHandler
                0x00000000080025e8       0x30 ./build/./bsp/stm32/libraries/STM32F1xx_HAL/STM32F1xx_HAL_Driver/Src/stm32f1xx_hal_gpio.o
                0x00000000080025e8                HAL_GPIO_EXTI_IRQHandler
 .text.HAL_RCC_OscConfig
                0x0000000008002618      0x500 ./build/./bsp/stm32/libraries/STM32F1xx_HAL/STM32F1xx_HAL_Driver/Src/stm32f1xx_hal_rcc.o
                0x0000000008002618                HAL_RCC_OscConfig
 .text.HAL_RCC_ClockConfig
                0x0000000008002b18      0x1d4 ./build/./bsp/stm32/libraries/STM32F1xx_HAL/STM32F1xx_HAL_Driver/Src/stm32f1xx_hal_rcc.o
                0x0000000008002b18                HAL_RCC_ClockConfig
 .text.HAL_RCC_GetSysClockFreq
                0x0000000008002cec       0xc4 ./build/./bsp/stm32/libraries/STM32F1xx_HAL/STM32F1xx_HAL_Driver/Src/stm32f1xx_hal_rcc.o
                0x0000000008002cec                HAL_RCC_GetSysClockFreq
 .text.HAL_RCC_GetHCLKFreq
                0x0000000008002db0       0x14 ./build/./bsp/stm32/libraries/STM32F1xx_HAL/STM32F1xx_HAL_Driver/Src/stm32f1xx_hal_rcc.o
                0x0000000008002db0                HAL_RCC_GetHCLKFreq
 .text.HAL_RCC_GetPCLK1Freq
                0x0000000008002dc4       0x28 ./build/./bsp/stm32/libraries/STM32F1xx_HAL/STM32F1xx_HAL_Driver/Src/stm32f1xx_hal_rcc.o
                0x0000000008002dc4                HAL_RCC_GetPCLK1Freq
 .text.HAL_RCC_GetPCLK2Freq
                0x0000000008002dec       0x28 ./build/./bsp/stm32/libraries/STM32F1xx_HAL/STM32F1xx_HAL_Driver/Src/stm32f1xx_hal_rcc.o
                0x0000000008002dec                HAL_RCC_GetPCLK2Freq
 .text.RCC_Delay
                0x0000000008002e14       0x3c ./build/./bsp/stm32/libraries/STM32F1xx_HAL/STM32F1xx_HAL_Driver/Src/stm32f1xx_hal_rcc.o
 .text.HAL_UART_Init
                0x0000000008002e50       0x9a ./build/./bsp/stm32/libraries/STM32F1xx_HAL/STM32F1xx_HAL_Driver/Src/stm32f1xx_hal_uart.o
                0x0000000008002e50                HAL_UART_Init
 .text.HAL_UART_DeInit
                0x0000000008002eea       0x58 ./build/./bsp/stm32/libraries/STM32F1xx_HAL/STM32F1xx_HAL_Driver/Src/stm32f1xx_hal_uart.o
                0x0000000008002eea                HAL_UART_DeInit
 *fill*         0x0000000008002f42        0x2 00000000
 .text.HAL_UART_Transmit_DMA
                0x0000000008002f44       0xd8 ./build/./bsp/stm32/libraries/STM32F1xx_HAL/STM32F1xx_HAL_Driver/Src/stm32f1xx_hal_uart.o
                0x0000000008002f44                HAL_UART_Transmit_DMA
 .text.HAL_UART_Receive_DMA
                0x000000000800301c      0x100 ./build/./bsp/stm32/libraries/STM32F1xx_HAL/STM32F1xx_HAL_Driver/Src/stm32f1xx_hal_uart.o
                0x000000000800301c                HAL_UART_Receive_DMA
 .text.HAL_UART_IRQHandler
                0x000000000800311c      0x1f8 ./build/./bsp/stm32/libraries/STM32F1xx_HAL/STM32F1xx_HAL_Driver/Src/stm32f1xx_hal_uart.o
                0x000000000800311c                HAL_UART_IRQHandler
 .text.HAL_UART_TxHalfCpltCallback
                0x0000000008003314       0x12 ./build/./bsp/stm32/libraries/STM32F1xx_HAL/STM32F1xx_HAL_Driver/Src/stm32f1xx_hal_uart.o
                0x0000000008003314                HAL_UART_TxHalfCpltCallback
 .text.UART_DMATransmitCplt
                0x0000000008003326       0x52 ./build/./bsp/stm32/libraries/STM32F1xx_HAL/STM32F1xx_HAL_Driver/Src/stm32f1xx_hal_uart.o
 .text.UART_DMATxHalfCplt
                0x0000000008003378       0x1c ./build/./bsp/stm32/libraries/STM32F1xx_HAL/STM32F1xx_HAL_Driver/Src/stm32f1xx_hal_uart.o
 .text.UART_DMAReceiveCplt
                0x0000000008003394       0x68 ./build/./bsp/stm32/libraries/STM32F1xx_HAL/STM32F1xx_HAL_Driver/Src/stm32f1xx_hal_uart.o
 .text.UART_DMARxHalfCplt
                0x00000000080033fc       0x1c ./build/./bsp/stm32/libraries/STM32F1xx_HAL/STM32F1xx_HAL_Driver/Src/stm32f1xx_hal_uart.o
 .text.UART_DMAError
                0x0000000008003418       0x94 ./build/./bsp/stm32/libraries/STM32F1xx_HAL/STM32F1xx_HAL_Driver/Src/stm32f1xx_hal_uart.o
 .text.UART_EndTxTransfer
                0x00000000080034ac       0x2a ./build/./bsp/stm32/libraries/STM32F1xx_HAL/STM32F1xx_HAL_Driver/Src/stm32f1xx_hal_uart.o
 .text.UART_EndRxTransfer
                0x00000000080034d6       0x3a ./build/./bsp/stm32/libraries/STM32F1xx_HAL/STM32F1xx_HAL_Driver/Src/stm32f1xx_hal_uart.o
 .text.UART_DMAAbortOnError
                0x0000000008003510       0x28 ./build/./bsp/stm32/libraries/STM32F1xx_HAL/STM32F1xx_HAL_Driver/Src/stm32f1xx_hal_uart.o
 .text.UART_Transmit_IT
                0x0000000008003538       0xa8 ./build/./bsp/stm32/libraries/STM32F1xx_HAL/STM32F1xx_HAL_Driver/Src/stm32f1xx_hal_uart.o
 .text.UART_EndTransmit_IT
                0x00000000080035e0       0x30 ./build/./bsp/stm32/libraries/STM32F1xx_HAL/STM32F1xx_HAL_Driver/Src/stm32f1xx_hal_uart.o
 .text.UART_Receive_IT
                0x0000000008003610      0x102 ./build/./bsp/stm32/libraries/STM32F1xx_HAL/STM32F1xx_HAL_Driver/Src/stm32f1xx_hal_uart.o
 *fill*         0x0000000008003712        0x2 00000000
 .text.UART_SetConfig
                0x0000000008003714      0x1b4 ./build/./bsp/stm32/libraries/STM32F1xx_HAL/STM32F1xx_HAL_Driver/Src/stm32f1xx_hal_uart.o
 .text.main     0x00000000080038c8       0x74 ./build/bsp/applications/main.o
                0x00000000080038c8                main
 .text.HAL_MspInit
                0x000000000800393c       0x64 ./build/bsp/board/CubeMX_Config/Src/stm32f1xx_hal_msp.o
                0x000000000800393c                HAL_MspInit
 .text.HAL_UART_MspInit
                0x00000000080039a0       0x98 ./build/bsp/board/CubeMX_Config/Src/stm32f1xx_hal_msp.o
                0x00000000080039a0                HAL_UART_MspInit
 .text.HAL_UART_MspDeInit
                0x0000000008003a38       0x3c ./build/bsp/board/CubeMX_Config/Src/stm32f1xx_hal_msp.o
                0x0000000008003a38                HAL_UART_MspDeInit
 .text.SystemClock_Config
                0x0000000008003a74       0x98 ./build/bsp/board/board.o
                0x0000000008003a74                SystemClock_Config
 .text._pin_read
                0x0000000008003b0c       0x60 ./build/./components/drivers/misc/pin.o
 .text._pin_write
                0x0000000008003b6c       0x5c ./build/./components/drivers/misc/pin.o
 .text._pin_control
                0x0000000008003bc8       0x58 ./build/./components/drivers/misc/pin.o
 .text.rt_device_pin_register
                0x0000000008003c20       0x74 ./build/./components/drivers/misc/pin.o
                0x0000000008003c20                rt_device_pin_register
 .text.rt_pin_mode
                0x0000000008003c94       0x40 ./build/./components/drivers/misc/pin.o
                0x0000000008003c94                rt_pin_mode
 .text.rt_pin_write
                0x0000000008003cd4       0x40 ./build/./components/drivers/misc/pin.o
                0x0000000008003cd4                rt_pin_write
 .text.rt_pin_read
                0x0000000008003d14       0x3c ./build/./components/drivers/misc/pin.o
                0x0000000008003d14                rt_pin_read
 .text._serial_poll_rx
                0x0000000008003d50       0x74 ./build/./components/drivers/serial/serial.o
 .text._serial_poll_tx
                0x0000000008003dc4       0x7c ./build/./components/drivers/serial/serial.o
 .text._serial_int_rx
                0x0000000008003e40       0xd8 ./build/./components/drivers/serial/serial.o
 .text._serial_int_tx
                0x0000000008003f18       0x90 ./build/./components/drivers/serial/serial.o
 .text._serial_check_buffer_size
                0x0000000008003fa8       0x38 ./build/./components/drivers/serial/serial.o
 .text._serial_fifo_calc_recved_len
                0x0000000008003fe0       0x88 ./build/./components/drivers/serial/serial.o
 .text.rt_dma_calc_recved_len
                0x0000000008004068       0x18 ./build/./components/drivers/serial/serial.o
 .text.rt_dma_recv_update_get_index
                0x0000000008004080       0xa4 ./build/./components/drivers/serial/serial.o
 .text.rt_dma_recv_update_put_index
                0x0000000008004124       0xf8 ./build/./components/drivers/serial/serial.o
 .text._serial_dma_rx
                0x000000000800421c      0x198 ./build/./components/drivers/serial/serial.o
 .text._serial_dma_tx
                0x00000000080043b4       0x70 ./build/./components/drivers/serial/serial.o
 .text.rt_serial_init
                0x0000000008004424       0x5c ./build/./components/drivers/serial/serial.o
 .text.rt_serial_open
                0x0000000008004480      0x36c ./build/./components/drivers/serial/serial.o
 .text.rt_serial_close
                0x00000000080047ec      0x1e0 ./build/./components/drivers/serial/serial.o
 .text.rt_serial_read
                0x00000000080049cc       0x84 ./build/./components/drivers/serial/serial.o
 .text.rt_serial_write
                0x0000000008004a50       0x84 ./build/./components/drivers/serial/serial.o
 .text.rt_serial_control
                0x0000000008004ad4       0xd0 ./build/./components/drivers/serial/serial.o
 .text.rt_hw_serial_register
                0x0000000008004ba4       0x9c ./build/./components/drivers/serial/serial.o
                0x0000000008004ba4                rt_hw_serial_register
 .text.rt_hw_serial_isr
                0x0000000008004c40      0x264 ./build/./components/drivers/serial/serial.o
                0x0000000008004c40                rt_hw_serial_isr
 .text.rt_list_init
                0x0000000008004ea4       0x20 ./build/./components/drivers/src/completion.o
 .text.rt_list_insert_before
                0x0000000008004ec4       0x30 ./build/./components/drivers/src/completion.o
 .text.rt_list_isempty
                0x0000000008004ef4       0x22 ./build/./components/drivers/src/completion.o
 *fill*         0x0000000008004f16        0x2 00000000
 .text.rt_completion_init
                0x0000000008004f18       0x44 ./build/./components/drivers/src/completion.o
                0x0000000008004f18                rt_completion_init
 .text.rt_completion_wait
                0x0000000008004f5c       0xfc ./build/./components/drivers/src/completion.o
                0x0000000008004f5c                rt_completion_wait
 .text.rt_completion_done
                0x0000000008005058       0x70 ./build/./components/drivers/src/completion.o
                0x0000000008005058                rt_completion_done
 .text.rt_list_init
                0x00000000080050c8       0x20 ./build/./components/drivers/src/dataqueue.o
 .text.rt_list_insert_before
                0x00000000080050e8       0x30 ./build/./components/drivers/src/dataqueue.o
 .text.rt_list_isempty
                0x0000000008005118       0x22 ./build/./components/drivers/src/dataqueue.o
 *fill*         0x000000000800513a        0x2 00000000
 .text.rt_data_queue_init
                0x000000000800513c       0x90 ./build/./components/drivers/src/dataqueue.o
                0x000000000800513c                rt_data_queue_init
 .text.rt_data_queue_push
                0x00000000080051cc      0x1ac ./build/./components/drivers/src/dataqueue.o
                0x00000000080051cc                rt_data_queue_push
 .text.rt_data_queue_pop
                0x0000000008005378      0x200 ./build/./components/drivers/src/dataqueue.o
                0x0000000008005378                rt_data_queue_pop
 .text.rt_data_queue_peak
                0x0000000008005578       0xb8 ./build/./components/drivers/src/dataqueue.o
                0x0000000008005578                rt_data_queue_peak
 .text.rt_data_queue_reset
                0x0000000008005630       0xb0 ./build/./components/drivers/src/dataqueue.o
                0x0000000008005630                rt_data_queue_reset
 .text.rt_data_queue_deinit
                0x00000000080056e0       0x70 ./build/./components/drivers/src/dataqueue.o
                0x00000000080056e0                rt_data_queue_deinit
 .text.rt_list_isempty
                0x0000000008005750       0x22 ./build/./components/finsh/cmd.o
 .text.rt_list_len
                0x0000000008005772       0x34 ./build/./components/finsh/cmd.o
 *fill*         0x00000000080057a6        0x2 00000000
 .text.hello    0x00000000080057a8       0x14 ./build/./components/finsh/cmd.o
                0x00000000080057a8                hello
 .text.clear    0x00000000080057bc       0x14 ./build/./components/finsh/cmd.o
                0x00000000080057bc                clear
 .text.version  0x00000000080057d0        0xe ./build/./components/finsh/cmd.o
                0x00000000080057d0                version
 *fill*         0x00000000080057de        0x2 00000000
 .text.object_split
                0x00000000080057e0       0x28 ./build/./components/finsh/cmd.o
 .text.list_find_init
                0x0000000008005808       0x46 ./build/./components/finsh/cmd.o
 .text.list_get_next
                0x000000000800584e       0xc6 ./build/./components/finsh/cmd.o
 .text.list_thread
                0x0000000008005914      0x208 ./build/./components/finsh/cmd.o
                0x0000000008005914                list_thread
 .text.show_wait_queue
                0x0000000008005b1c       0x50 ./build/./components/finsh/cmd.o
 .text.list_sem
                0x0000000008005b6c      0x12c ./build/./components/finsh/cmd.o
                0x0000000008005b6c                list_sem
 .text.list_event
                0x0000000008005c98      0x118 ./build/./components/finsh/cmd.o
                0x0000000008005c98                list_event
 .text.list_mutex
                0x0000000008005db0       0xe8 ./build/./components/finsh/cmd.o
                0x0000000008005db0                list_mutex
 .text.list_mailbox
                0x0000000008005e98      0x13c ./build/./components/finsh/cmd.o
                0x0000000008005e98                list_mailbox
 .text.list_msgqueue
                0x0000000008005fd4      0x12c ./build/./components/finsh/cmd.o
                0x0000000008005fd4                list_msgqueue
 .text.list_mempool
                0x0000000008006100      0x144 ./build/./components/finsh/cmd.o
                0x0000000008006100                list_mempool
 .text.list_timer
                0x0000000008006244      0x108 ./build/./components/finsh/cmd.o
                0x0000000008006244                list_timer
 .text.list_device
                0x000000000800634c       0xf0 ./build/./components/finsh/cmd.o
                0x000000000800634c                list_device
 .text.list     0x000000000800643c       0x6c ./build/./components/finsh/cmd.o
                0x000000000800643c                list
 .text.msh_is_used
                0x00000000080064a8        0xe ./build/./components/finsh/msh.o
                0x00000000080064a8                msh_is_used
 *fill*         0x00000000080064b6        0x2 00000000
 .text.msh_help
                0x00000000080064b8       0x7c ./build/./components/finsh/msh.o
                0x00000000080064b8                msh_help
 .text.cmd_ps   0x0000000008006534       0x18 ./build/./components/finsh/msh.o
                0x0000000008006534                cmd_ps
 .text.cmd_free
                0x000000000800654c       0x18 ./build/./components/finsh/msh.o
                0x000000000800654c                cmd_free
 .text.msh_split
                0x0000000008006564      0x170 ./build/./components/finsh/msh.o
 .text.msh_get_cmd
                0x00000000080066d4       0x80 ./build/./components/finsh/msh.o
 .text._msh_exec_cmd
                0x0000000008006754       0xd4 ./build/./components/finsh/msh.o
 .text.msh_exec
                0x0000000008006828       0x84 ./build/./components/finsh/msh.o
                0x0000000008006828                msh_exec
 .text.str_common
                0x00000000080068ac       0x48 ./build/./components/finsh/msh.o
 .text.msh_auto_complete
                0x00000000080068f4       0xd0 ./build/./components/finsh/msh.o
                0x00000000080068f4                msh_auto_complete
 .text.finsh_get_prompt
                0x00000000080069c4       0xa0 ./build/./components/finsh/shell.o
                0x00000000080069c4                finsh_get_prompt
 .text.finsh_set_prompt_mode
                0x0000000008006a64       0x48 ./build/./components/finsh/shell.o
                0x0000000008006a64                finsh_set_prompt_mode
 .text.finsh_getchar
                0x0000000008006aac       0x5c ./build/./components/finsh/shell.o
 .text.finsh_rx_ind
                0x0000000008006b08       0x3c ./build/./components/finsh/shell.o
 .text.finsh_set_device
                0x0000000008006b44       0xd8 ./build/./components/finsh/shell.o
                0x0000000008006b44                finsh_set_device
 .text.shell_auto_complete
                0x0000000008006c1c       0x40 ./build/./components/finsh/shell.o
 .text.shell_handle_history
                0x0000000008006c5c       0x34 ./build/./components/finsh/shell.o
 .text.shell_push_history
                0x0000000008006c90      0x15e ./build/./components/finsh/shell.o
 *fill*         0x0000000008006dee        0x2 00000000
 .text.finsh_thread_entry
                0x0000000008006df0      0x5d8 ./build/./components/finsh/shell.o
                0x0000000008006df0                finsh_thread_entry
 .text.finsh_system_function_init
                0x00000000080073c8       0x28 ./build/./components/finsh/shell.o
                0x00000000080073c8                finsh_system_function_init
 .text.finsh_system_var_init
                0x00000000080073f0       0x28 ./build/./components/finsh/shell.o
                0x00000000080073f0                finsh_system_var_init
 .text.finsh_system_init
                0x0000000008007418       0xac ./build/./components/finsh/shell.o
                0x0000000008007418                finsh_system_init
 .text.malloc   0x00000000080074c4       0x18 ./build/./components/libc/compilers/minilibc/stdlib.o
                0x00000000080074c4                malloc
 .text.strncpy  0x00000000080074dc       0x20 ./build/./components/libc/compilers/minilibc/string.o
                0x00000000080074dc                strncpy
 .text.strncmp  0x00000000080074fc       0x4a ./build/./components/libc/compilers/minilibc/string.o
                0x00000000080074fc                strncmp
 *fill*         0x0000000008007546        0x2 00000000
 .text.rt_hw_stack_init
                0x0000000008007548       0x88 ./build/./libcpu/arm/cortex-m3/cpuport.o
                0x0000000008007548                rt_hw_stack_init
 .text.usage_fault_track
                0x00000000080075d0       0xc4 ./build/./libcpu/arm/cortex-m3/cpuport.o
 .text.bus_fault_track
                0x0000000008007694       0xcc ./build/./libcpu/arm/cortex-m3/cpuport.o
 .text.mem_manage_fault_track
                0x0000000008007760       0xb4 ./build/./libcpu/arm/cortex-m3/cpuport.o
 .text.hard_fault_track
                0x0000000008007814       0x78 ./build/./libcpu/arm/cortex-m3/cpuport.o
 .text.rt_hw_hard_fault_exception
                0x000000000800788c      0x168 ./build/./libcpu/arm/cortex-m3/cpuport.o
                0x000000000800788c                rt_hw_hard_fault_exception
 .text.rt_hw_cpu_reset
                0x00000000080079f4       0x1c ./build/./libcpu/arm/cortex-m3/cpuport.o
                0x00000000080079f4                rt_hw_cpu_reset
 .text.rt_tick_get
                0x0000000008007a10       0x14 ./build/./src/clock.o
                0x0000000008007a10                rt_tick_get
 .text.rt_tick_increase
                0x0000000008007a24       0x58 ./build/./src/clock.o
                0x0000000008007a24                rt_tick_increase
 .text.rt_tick_from_millisecond
                0x0000000008007a7c       0x78 ./build/./src/clock.o
                0x0000000008007a7c                rt_tick_from_millisecond
 .text.rti_start
                0x0000000008007af4        0xe ./build/./src/components.o
 .text.rti_board_start
                0x0000000008007b02        0xe ./build/./src/components.o
 .text.rti_board_end
                0x0000000008007b10        0xe ./build/./src/components.o
 .text.rti_end  0x0000000008007b1e        0xe ./build/./src/components.o
 .text.rt_components_board_init
                0x0000000008007b2c       0x30 ./build/./src/components.o
                0x0000000008007b2c                rt_components_board_init
 .text.rt_components_init
                0x0000000008007b5c       0x30 ./build/./src/components.o
                0x0000000008007b5c                rt_components_init
 .text.entry    0x0000000008007b8c        0xe ./build/./src/components.o
                0x0000000008007b8c                entry
 .text.main_thread_entry
                0x0000000008007b9a       0x18 ./build/./src/components.o
                0x0000000008007b9a                main_thread_entry
 *fill*         0x0000000008007bb2        0x2 00000000
 .text.rt_application_init
                0x0000000008007bb4       0x4c ./build/./src/components.o
                0x0000000008007bb4                rt_application_init
 .text.rtthread_startup
                0x0000000008007c00       0x2e ./build/./src/components.o
                0x0000000008007c00                rtthread_startup
 .text.rt_device_register
                0x0000000008007c2e       0x54 ./build/./src/device.o
                0x0000000008007c2e                rt_device_register
 *fill*         0x0000000008007c82        0x2 00000000
 .text.rt_device_find
                0x0000000008007c84       0x90 ./build/./src/device.o
                0x0000000008007c84                rt_device_find
 .text.rt_device_open
                0x0000000008007d14      0x11c ./build/./src/device.o
                0x0000000008007d14                rt_device_open
 .text.rt_device_close
                0x0000000008007e30       0x9c ./build/./src/device.o
                0x0000000008007e30                rt_device_close
 .text.rt_device_read
                0x0000000008007ecc       0x88 ./build/./src/device.o
                0x0000000008007ecc                rt_device_read
 .text.rt_device_write
                0x0000000008007f54       0x88 ./build/./src/device.o
                0x0000000008007f54                rt_device_write
 .text.rt_device_set_rx_indicate
                0x0000000008007fdc       0x54 ./build/./src/device.o
                0x0000000008007fdc                rt_device_set_rx_indicate
 .text.rt_list_remove
                0x0000000008008030       0x34 ./build/./src/idle.o
 .text._has_defunct_thread
                0x0000000008008064       0x28 ./build/./src/idle.o
 .text.rt_thread_idle_excute
                0x000000000800808c       0xc8 ./build/./src/idle.o
                0x000000000800808c                rt_thread_idle_excute
 .text.rt_thread_idle_entry
                0x0000000008008154       0x3c ./build/./src/idle.o
 .text.rt_thread_idle_init
                0x0000000008008190       0x74 ./build/./src/idle.o
                0x0000000008008190                rt_thread_idle_init
 .text.rt_list_init
                0x0000000008008204       0x20 ./build/./src/ipc.o
 .text.rt_list_insert_before
                0x0000000008008224       0x30 ./build/./src/ipc.o
 .text.rt_list_isempty
                0x0000000008008254       0x22 ./build/./src/ipc.o
 .text.rt_ipc_object_init
                0x0000000008008276       0x1c ./build/./src/ipc.o
 .text.rt_ipc_list_suspend
                0x0000000008008292       0x8e ./build/./src/ipc.o
 .text.rt_ipc_list_resume
                0x0000000008008320       0x20 ./build/./src/ipc.o
 .text.rt_sem_init
                0x0000000008008340       0x68 ./build/./src/ipc.o
                0x0000000008008340                rt_sem_init
 .text.rt_sem_take
                0x00000000080083a8      0x160 ./build/./src/ipc.o
                0x00000000080083a8                rt_sem_take
 .text.rt_sem_release
                0x0000000008008508       0xa0 ./build/./src/ipc.o
                0x0000000008008508                rt_sem_release
 .text.rt_interrupt_enter
                0x00000000080085a8       0x40 ./build/./src/irq.o
                0x00000000080085a8                rt_interrupt_enter
 .text.rt_interrupt_leave
                0x00000000080085e8       0x40 ./build/./src/irq.o
                0x00000000080085e8                rt_interrupt_leave
 .text.rt_interrupt_get_nest
                0x0000000008008628       0x28 ./build/./src/irq.o
                0x0000000008008628                rt_interrupt_get_nest
 .text.rt_set_errno
                0x0000000008008650       0x40 ./build/./src/kservice.o
                0x0000000008008650                rt_set_errno
 .text.rt_memset
                0x0000000008008690       0xb4 ./build/./src/kservice.o
                0x0000000008008690                memset
                0x0000000008008690                rt_memset
 .text.rt_memcpy
                0x0000000008008744       0xd0 ./build/./src/kservice.o
                0x0000000008008744                memcpy
                0x0000000008008744                rt_memcpy
 .text.rt_memmove
                0x0000000008008814       0x80 ./build/./src/kservice.o
                0x0000000008008814                memmove
                0x0000000008008814                rt_memmove
 .text.rt_memcmp
                0x0000000008008894       0x56 ./build/./src/kservice.o
                0x0000000008008894                memcmp
                0x0000000008008894                rt_memcmp
 .text.rt_strncpy
                0x00000000080088ea       0x62 ./build/./src/kservice.o
                0x00000000080088ea                rt_strncpy
 .text.rt_strncmp
                0x000000000800894c       0x4a ./build/./src/kservice.o
                0x000000000800894c                rt_strncmp
 .text.rt_strlen
                0x0000000008008996       0x2c ./build/./src/kservice.o
                0x0000000008008996                rt_strlen
                0x0000000008008996                strlen
 *fill*         0x00000000080089c2        0x2 00000000
 .text.rt_show_version
                0x00000000080089c4       0x44 ./build/./src/kservice.o
                0x00000000080089c4                rt_show_version
 .text.divide   0x0000000008008a08       0x68 ./build/./src/kservice.o
 .text.skip_atoi
                0x0000000008008a70       0x40 ./build/./src/kservice.o
 .text.print_number
                0x0000000008008ab0      0x1dc ./build/./src/kservice.o
 .text.rt_vsnprintf
                0x0000000008008c8c      0x548 ./build/./src/kservice.o
                0x0000000008008c8c                rt_vsnprintf
 .text.rt_vsprintf
                0x00000000080091d4       0x24 ./build/./src/kservice.o
                0x00000000080091d4                vsprintf
                0x00000000080091d4                rt_vsprintf
 .text.rt_sprintf
                0x00000000080091f8       0x2c ./build/./src/kservice.o
                0x00000000080091f8                rt_sprintf
                0x00000000080091f8                sprintf
 .text.rt_console_get_device
                0x0000000008009224       0x14 ./build/./src/kservice.o
                0x0000000008009224                rt_console_get_device
 .text.rt_console_set_device
                0x0000000008009238       0x4c ./build/./src/kservice.o
                0x0000000008009238                rt_console_set_device
 .text.rt_hw_console_output
                0x0000000008009284       0x12 ./build/./src/kservice.o
                0x0000000008009284                rt_hw_console_output
 *fill*         0x0000000008009296        0x2 00000000
 .text.rt_kprintf
                0x0000000008009298       0x80 ./build/./src/kservice.o
                0x0000000008009298                rt_kprintf
 .text.__rt_ffs
                0x0000000008009318       0x70 ./build/./src/kservice.o
                0x0000000008009318                __rt_ffs
 .text.rt_assert_handler
                0x0000000008009388       0x4c ./build/./src/kservice.o
                0x0000000008009388                rt_assert_handler
 .text.plug_holes
                0x00000000080093d4      0x100 ./build/./src/mem.o
 .text.rt_system_heap_init
                0x00000000080094d4      0x118 ./build/./src/mem.o
                0x00000000080094d4                rt_system_heap_init
 .text.rt_malloc
                0x00000000080095ec      0x294 ./build/./src/mem.o
                0x00000000080095ec                rt_malloc
 .text.rt_calloc
                0x0000000008009880       0x3c ./build/./src/mem.o
                0x0000000008009880                rt_calloc
 .text.rt_free  0x00000000080098bc      0x188 ./build/./src/mem.o
                0x00000000080098bc                rt_free
 .text.list_mem
                0x0000000008009a44       0x44 ./build/./src/mem.o
                0x0000000008009a44                list_mem
 .text.rt_list_insert_after
                0x0000000008009a88       0x30 ./build/./src/object.o
 .text.rt_list_remove
                0x0000000008009ab8       0x34 ./build/./src/object.o
 .text.rt_object_get_information
                0x0000000008009aec       0x48 ./build/./src/object.o
                0x0000000008009aec                rt_object_get_information
 .text.rt_object_init
                0x0000000008009b34       0xcc ./build/./src/object.o
                0x0000000008009b34                rt_object_init
 .text.rt_object_detach
                0x0000000008009c00       0x5c ./build/./src/object.o
                0x0000000008009c00                rt_object_detach
 .text.rt_object_allocate
                0x0000000008009c5c       0xd8 ./build/./src/object.o
                0x0000000008009c5c                rt_object_allocate
 .text.rt_object_delete
                0x0000000008009d34       0x7c ./build/./src/object.o
                0x0000000008009d34                rt_object_delete
 .text.rt_object_is_systemobject
                0x0000000008009db0       0x3c ./build/./src/object.o
                0x0000000008009db0                rt_object_is_systemobject
 .text.rt_object_get_type
                0x0000000008009dec       0x34 ./build/./src/object.o
                0x0000000008009dec                rt_object_get_type
 .text.rt_list_init
                0x0000000008009e20       0x20 ./build/./src/scheduler.o
 .text.rt_list_insert_before
                0x0000000008009e40       0x30 ./build/./src/scheduler.o
 .text.rt_list_remove
                0x0000000008009e70       0x34 ./build/./src/scheduler.o
 .text.rt_list_isempty
                0x0000000008009ea4       0x22 ./build/./src/scheduler.o
 *fill*         0x0000000008009ec6        0x2 00000000
 .text._rt_scheduler_stack_check
                0x0000000008009ec8       0x98 ./build/./src/scheduler.o
 .text._get_highest_priority_thread
                0x0000000008009f60       0x38 ./build/./src/scheduler.o
 .text.rt_system_scheduler_init
                0x0000000008009f98       0x40 ./build/./src/scheduler.o
                0x0000000008009f98                rt_system_scheduler_init
 .text.rt_system_scheduler_start
                0x0000000008009fd8       0x38 ./build/./src/scheduler.o
                0x0000000008009fd8                rt_system_scheduler_start
 .text.rt_schedule
                0x000000000800a010      0x188 ./build/./src/scheduler.o
                0x000000000800a010                rt_schedule
 .text.rt_schedule_insert_thread
                0x000000000800a198       0xac ./build/./src/scheduler.o
                0x000000000800a198                rt_schedule_insert_thread
 .text.rt_schedule_remove_thread
                0x000000000800a244       0x70 ./build/./src/scheduler.o
                0x000000000800a244                rt_schedule_remove_thread
 .text.rt_enter_critical
                0x000000000800a2b4       0x2c ./build/./src/scheduler.o
                0x000000000800a2b4                rt_enter_critical
 .text.rt_exit_critical
                0x000000000800a2e0       0x54 ./build/./src/scheduler.o
                0x000000000800a2e0                rt_exit_critical
 .text.rt_list_init
                0x000000000800a334       0x20 ./build/./src/thread.o
 .text.rt_list_insert_after
                0x000000000800a354       0x30 ./build/./src/thread.o
 .text.rt_list_remove
                0x000000000800a384       0x34 ./build/./src/thread.o
 .text.rt_thread_exit
                0x000000000800a3b8       0x68 ./build/./src/thread.o
                0x000000000800a3b8                rt_thread_exit
 .text._rt_thread_init
                0x000000000800a420       0xf8 ./build/./src/thread.o
 .text.rt_thread_init
                0x000000000800a518       0x6c ./build/./src/thread.o
                0x000000000800a518                rt_thread_init
 .text.rt_thread_self
                0x000000000800a584       0x14 ./build/./src/thread.o
                0x000000000800a584                rt_thread_self
 .text.rt_thread_startup
                0x000000000800a598       0xa0 ./build/./src/thread.o
                0x000000000800a598                rt_thread_startup
 .text.rt_thread_create
                0x000000000800a638       0x62 ./build/./src/thread.o
                0x000000000800a638                rt_thread_create
 .text.rt_thread_yield
                0x000000000800a69a        0xe ./build/./src/thread.o
                0x000000000800a69a                rt_thread_yield
 .text.rt_thread_sleep
                0x000000000800a6a8       0x8c ./build/./src/thread.o
                0x000000000800a6a8                rt_thread_sleep
 .text.rt_thread_mdelay
                0x000000000800a734       0x20 ./build/./src/thread.o
                0x000000000800a734                rt_thread_mdelay
 .text.rt_thread_suspend
                0x000000000800a754       0xcc ./build/./src/thread.o
                0x000000000800a754                rt_thread_suspend
 .text.rt_thread_resume
                0x000000000800a820       0x98 ./build/./src/thread.o
                0x000000000800a820                rt_thread_resume
 .text.rt_thread_timeout
                0x000000000800a8b8       0x84 ./build/./src/thread.o
                0x000000000800a8b8                rt_thread_timeout
 .text.rt_list_init
                0x000000000800a93c       0x20 ./build/./src/timer.o
 .text.rt_list_insert_after
                0x000000000800a95c       0x30 ./build/./src/timer.o
 .text.rt_list_remove
                0x000000000800a98c       0x34 ./build/./src/timer.o
 .text.rt_list_isempty
                0x000000000800a9c0       0x22 ./build/./src/timer.o
 .text._rt_timer_init
                0x000000000800a9e2       0x68 ./build/./src/timer.o
 .text._rt_timer_remove
                0x000000000800aa4a       0x34 ./build/./src/timer.o
 *fill*         0x000000000800aa7e        0x2 00000000
 .text.rt_timer_init
                0x000000000800aa80       0x48 ./build/./src/timer.o
                0x000000000800aa80                rt_timer_init
 .text.rt_timer_detach
                0x000000000800aac8       0x7c ./build/./src/timer.o
                0x000000000800aac8                rt_timer_detach
 .text.rt_timer_start
                0x000000000800ab44      0x1fc ./build/./src/timer.o
                0x000000000800ab44                rt_timer_start
 .text.rt_timer_stop
                0x000000000800ad40       0x94 ./build/./src/timer.o
                0x000000000800ad40                rt_timer_stop
 .text.rt_timer_control
                0x000000000800add4       0xc0 ./build/./src/timer.o
                0x000000000800add4                rt_timer_control
 .text.rt_timer_check
                0x000000000800ae94       0xcc ./build/./src/timer.o
                0x000000000800ae94                rt_timer_check
 .text.rt_system_timer_init
                0x000000000800af60       0x34 ./build/./src/timer.o
                0x000000000800af60                rt_system_timer_init
 .text.rt_system_timer_thread_init
                0x000000000800af94        0xc ./build/./src/timer.o
                0x000000000800af94                rt_system_timer_thread_init
 .text.Reset_Handler
                0x000000000800afa0       0x44 ./build/./bsp/stm32/libraries/STM32F1xx_HAL/CMSIS/Device/ST/STM32F1xx/Source/Templates/gcc/startup_stm32f103xb.o
                0x000000000800afa0                Reset_Handler
 .text.Default_Handler
                0x000000000800afe4        0x2 ./build/./bsp/stm32/libraries/STM32F1xx_HAL/CMSIS/Device/ST/STM32F1xx/Source/Templates/gcc/startup_stm32f103xb.o
                0x000000000800afe4                RTC_Alarm_IRQHandler
                0x000000000800afe4                DebugMon_Handler
                0x000000000800afe4                TIM1_CC_IRQHandler
                0x000000000800afe4                PVD_IRQHandler
                0x000000000800afe4                NMI_Handler
                0x000000000800afe4                I2C2_EV_IRQHandler
                0x000000000800afe4                UsageFault_Handler
                0x000000000800afe4                ADC1_2_IRQHandler
                0x000000000800afe4                SPI1_IRQHandler
                0x000000000800afe4                TAMPER_IRQHandler
                0x000000000800afe4                DMA1_Channel4_IRQHandler
                0x000000000800afe4                USART3_IRQHandler
                0x000000000800afe4                RTC_IRQHandler
                0x000000000800afe4                DMA1_Channel7_IRQHandler
                0x000000000800afe4                CAN1_RX1_IRQHandler
                0x000000000800afe4                TIM4_IRQHandler
                0x000000000800afe4                I2C1_EV_IRQHandler
                0x000000000800afe4                DMA1_Channel6_IRQHandler
                0x000000000800afe4                TIM3_IRQHandler
                0x000000000800afe4                RCC_IRQHandler
                0x000000000800afe4                TIM1_TRG_COM_IRQHandler
                0x000000000800afe4                DMA1_Channel1_IRQHandler
                0x000000000800afe4                Default_Handler
                0x000000000800afe4                SPI2_IRQHandler
                0x000000000800afe4                MemManage_Handler
                0x000000000800afe4                SVC_Handler
                0x000000000800afe4                USB_LP_CAN1_RX0_IRQHandler
                0x000000000800afe4                USB_HP_CAN1_TX_IRQHandler
                0x000000000800afe4                DMA1_Channel3_IRQHandler
                0x000000000800afe4                TIM1_UP_IRQHandler
                0x000000000800afe4                WWDG_IRQHandler
                0x000000000800afe4                TIM2_IRQHandler
                0x000000000800afe4                TIM1_BRK_IRQHandler
                0x000000000800afe4                USART2_IRQHandler
                0x000000000800afe4                I2C2_ER_IRQHandler
                0x000000000800afe4                DMA1_Channel2_IRQHandler
                0x000000000800afe4                CAN1_SCE_IRQHandler
                0x000000000800afe4                FLASH_IRQHandler
                0x000000000800afe4                BusFault_Handler
                0x000000000800afe4                I2C1_ER_IRQHandler
                0x000000000800afe4                USBWakeUp_IRQHandler
 *fill*         0x000000000800afe6        0x2 00000000
 .text.startup  0x000000000800afe8       0x14 /usr/lib/gcc/arm-none-eabi/6.3.1/../../../arm-none-eabi/lib/thumb/v7-m/libc.a(lib_a-__call_atexit.o)
 *(.rodata)
 .rodata        0x000000000800affc        0x6 ./build/./bsp/stm32/libraries/HAL_Drivers/drv_common.o
 *fill*         0x000000000800b002        0x2 00000000
 .rodata        0x000000000800b004        0x4 ./build/./bsp/stm32/libraries/HAL_Drivers/drv_gpio.o
 .rodata        0x000000000800b008       0x6c ./build/./bsp/stm32/libraries/HAL_Drivers/drv_usart.o
 .rodata        0x000000000800b074       0x12 ./build/./bsp/stm32/libraries/STM32F1xx_HAL/STM32F1xx_HAL_Driver/Src/stm32f1xx_hal_rcc.o
 *fill*         0x000000000800b086        0x2 00000000
 .rodata        0x000000000800b088        0xe ./build/bsp/board/board.o
 *fill*         0x000000000800b096        0x2 00000000
 .rodata        0x000000000800b098       0x27 ./build/./components/drivers/misc/pin.o
 *fill*         0x000000000800b0bf        0x1 00000000
 .rodata        0x000000000800b0c0      0x19a ./build/./components/drivers/serial/serial.o
 *fill*         0x000000000800b25a        0x2 00000000
 .rodata        0x000000000800b25c       0x72 ./build/./components/drivers/src/completion.o
 *fill*         0x000000000800b2ce        0x2 00000000
 .rodata        0x000000000800b2d0       0x84 ./build/./components/drivers/src/dataqueue.o
 .rodata        0x000000000800b354      0x639 ./build/./components/finsh/cmd.o
 *fill*         0x000000000800b98d        0x3 00000000
 .rodata        0x000000000800b990       0x80 ./build/./components/finsh/msh.o
 .rodata        0x000000000800ba10       0x99 ./build/./components/finsh/shell.o
 *fill*         0x000000000800baa9        0x3 00000000
 .rodata        0x000000000800baac      0x2be ./build/./libcpu/arm/cortex-m3/cpuport.o
 *fill*         0x000000000800bd6a        0x2 00000000
 .rodata        0x000000000800bd6c       0x17 ./build/./src/components.o
 *fill*         0x000000000800bd83        0x1 00000000
 .rodata        0x000000000800bd84      0x10c ./build/./src/device.o
 .rodata        0x000000000800be90       0x34 ./build/./src/idle.o
 .rodata        0x000000000800bec4      0x476 ./build/./src/ipc.o
 *fill*         0x000000000800c33a        0x2 00000000
 .rodata        0x000000000800c33c       0xc7 ./build/./src/kservice.o
 *fill*         0x000000000800c403        0x1 00000000
 .rodata        0x000000000800c404      0x2fa ./build/./src/mem.o
 *fill*         0x000000000800c6fe        0x2 00000000
 .rodata        0x000000000800c700       0x91 ./build/./src/object.o
 *fill*         0x000000000800c791        0x3 00000000
 .rodata        0x000000000800c794       0x65 ./build/./src/scheduler.o
 *fill*         0x000000000800c7f9        0x3 00000000
 .rodata        0x000000000800c7fc      0x1b7 ./build/./src/thread.o
 *fill*         0x000000000800c9b3        0x1 00000000
 .rodata        0x000000000800c9b4       0xd7 ./build/./src/timer.o
 *fill*         0x000000000800ca8b        0x1 00000000
 .rodata        0x000000000800ca8c        0x4 /usr/lib/gcc/arm-none-eabi/6.3.1/../../../arm-none-eabi/lib/thumb/v7-m/libc.a(lib_a-impure.o)
                0x000000000800ca8c                _global_impure_ptr
 *(.rodata*)
 .rodata.name   0x000000000800ca90       0x1e ./build/./bsp/stm32/libraries/HAL_Drivers/drv_common.o
                0x000000000800ca90                __fsym___cmd_reboot_name
                0x000000000800caa0                __fsym___cmd_reboot_desc
 *fill*         0x000000000800caae        0x2 00000000
 .rodata.pins   0x000000000800cab0      0x3c0 ./build/./bsp/stm32/libraries/HAL_Drivers/drv_gpio.o
 .rodata.pin_irq_map
                0x000000000800ce70       0x40 ./build/./bsp/stm32/libraries/HAL_Drivers/drv_gpio.o
 .rodata._stm32_pin_ops
                0x000000000800ceb0       0x18 ./build/./bsp/stm32/libraries/HAL_Drivers/drv_gpio.o
 .rodata.stm32_uart_ops
                0x000000000800cec8       0x14 ./build/./bsp/stm32/libraries/HAL_Drivers/drv_usart.o
 .rodata.__FUNCTION__.7230
                0x000000000800cedc       0x10 ./build/./bsp/stm32/libraries/HAL_Drivers/drv_usart.o
 .rodata.__FUNCTION__.7251
                0x000000000800ceec        0xe ./build/./bsp/stm32/libraries/HAL_Drivers/drv_usart.o
 *fill*         0x000000000800cefa        0x2 00000000
 .rodata.__FUNCTION__.7262
                0x000000000800cefc        0xb ./build/./bsp/stm32/libraries/HAL_Drivers/drv_usart.o
 *fill*         0x000000000800cf07        0x1 00000000
 .rodata.__FUNCTION__.7271
                0x000000000800cf08        0xb ./build/./bsp/stm32/libraries/HAL_Drivers/drv_usart.o
 *fill*         0x000000000800cf13        0x1 00000000
 .rodata.__FUNCTION__.7279
                0x000000000800cf14       0x13 ./build/./bsp/stm32/libraries/HAL_Drivers/drv_usart.o
 *fill*         0x000000000800cf27        0x1 00000000
 .rodata.__FUNCTION__.7287
                0x000000000800cf28        0x9 ./build/./bsp/stm32/libraries/HAL_Drivers/drv_usart.o
 *fill*         0x000000000800cf31        0x3 00000000
 .rodata.__FUNCTION__.7300
                0x000000000800cf34        0x8 ./build/./bsp/stm32/libraries/HAL_Drivers/drv_usart.o
 .rodata.__FUNCTION__.7319
                0x000000000800cf3c       0x11 ./build/./bsp/stm32/libraries/HAL_Drivers/drv_usart.o
 *fill*         0x000000000800cf4d        0x3 00000000
 .rodata.__FUNCTION__.7324
                0x000000000800cf50       0x17 ./build/./bsp/stm32/libraries/HAL_Drivers/drv_usart.o
 *fill*         0x000000000800cf67        0x1 00000000
 .rodata.__FUNCTION__.7330
                0x000000000800cf68       0x18 ./build/./bsp/stm32/libraries/HAL_Drivers/drv_usart.o
 .rodata.__FUNCTION__.7335
                0x000000000800cf80       0x1c ./build/./bsp/stm32/libraries/HAL_Drivers/drv_usart.o
 .rodata.__FUNCTION__.7342
                0x000000000800cf9c       0x11 ./build/./bsp/stm32/libraries/HAL_Drivers/drv_usart.o
 *fill*         0x000000000800cfad        0x3 00000000
 .rodata.__FUNCTION__.7347
                0x000000000800cfb0       0x18 ./build/./bsp/stm32/libraries/HAL_Drivers/drv_usart.o
 .rodata.__FUNCTION__.7356
                0x000000000800cfc8       0x11 ./build/./bsp/stm32/libraries/HAL_Drivers/drv_usart.o
 *fill*         0x000000000800cfd9        0x3 00000000
 .rodata.AHBPrescTable
                0x000000000800cfdc       0x10 ./build/./bsp/stm32/libraries/STM32F1xx_HAL/CMSIS/Device/ST/STM32F1xx/Source/Templates/system_stm32f1xx.o
                0x000000000800cfdc                AHBPrescTable
 .rodata.APBPrescTable
                0x000000000800cfec        0x8 ./build/./bsp/stm32/libraries/STM32F1xx_HAL/CMSIS/Device/ST/STM32F1xx/Source/Templates/system_stm32f1xx.o
                0x000000000800cfec                APBPrescTable
 .rodata.name   0x000000000800cff4       0x6e ./build/./components/drivers/misc/pin.o
                0x000000000800cff4                __fsym_pinMode_name
                0x000000000800cffc                __fsym_pinMode_desc
                0x000000000800d014                __fsym_pinWrite_name
                0x000000000800d020                __fsym_pinWrite_desc
                0x000000000800d03c                __fsym_pinRead_name
                0x000000000800d044                __fsym_pinRead_desc
 *fill*         0x000000000800d062        0x2 00000000
 .rodata.__FUNCTION__.5757
                0x000000000800d064        0xa ./build/./components/drivers/misc/pin.o
 *fill*         0x000000000800d06e        0x2 00000000
 .rodata.__FUNCTION__.5766
                0x000000000800d070        0xb ./build/./components/drivers/misc/pin.o
 *fill*         0x000000000800d07b        0x1 00000000
 .rodata.__FUNCTION__.5774
                0x000000000800d07c        0xd ./build/./components/drivers/misc/pin.o
 *fill*         0x000000000800d089        0x3 00000000
 .rodata.__FUNCTION__.5801
                0x000000000800d08c        0xc ./build/./components/drivers/misc/pin.o
 .rodata.__FUNCTION__.5809
                0x000000000800d098        0xd ./build/./components/drivers/misc/pin.o
 *fill*         0x000000000800d0a5        0x3 00000000
 .rodata.__FUNCTION__.5816
                0x000000000800d0a8        0xc ./build/./components/drivers/misc/pin.o
 .rodata.__FUNCTION__.5651
                0x000000000800d0b4       0x1d ./build/./components/drivers/serial/serial.o
 *fill*         0x000000000800d0d1        0x3 00000000
 .rodata.__FUNCTION__.5660
                0x000000000800d0d4       0x1d ./build/./components/drivers/serial/serial.o
 *fill*         0x000000000800d0f1        0x3 00000000
 .rodata.__FUNCTION__.5666
                0x000000000800d0f4       0x1d ./build/./components/drivers/serial/serial.o
 *fill*         0x000000000800d111        0x3 00000000
 .rodata.__FUNCTION__.5692
                0x000000000800d114        0xf ./build/./components/drivers/serial/serial.o
 *fill*         0x000000000800d123        0x1 00000000
 .rodata.__FUNCTION__.5699
                0x000000000800d124        0xf ./build/./components/drivers/serial/serial.o
 *fill*         0x000000000800d133        0x1 00000000
 .rodata.__FUNCTION__.5709
                0x000000000800d134       0x10 ./build/./components/drivers/serial/serial.o
 .rodata.__FUNCTION__.5722
                0x000000000800d144        0xf ./build/./components/drivers/serial/serial.o
 *fill*         0x000000000800d153        0x1 00000000
 .rodata.__FUNCTION__.5626
                0x000000000800d154        0xf ./build/./components/drivers/serial/serial.o
 *fill*         0x000000000800d163        0x1 00000000
 .rodata.__FUNCTION__.5673
                0x000000000800d164        0xf ./build/./components/drivers/serial/serial.o
 *fill*         0x000000000800d173        0x1 00000000
 .rodata.__FUNCTION__.5605
                0x000000000800d174       0x10 ./build/./components/drivers/serial/serial.o
 .rodata.__FUNCTION__.5730
                0x000000000800d184       0x10 ./build/./components/drivers/serial/serial.o
 .rodata.__FUNCTION__.5639
                0x000000000800d194        0xf ./build/./components/drivers/serial/serial.o
 *fill*         0x000000000800d1a3        0x1 00000000
 .rodata.__FUNCTION__.5615
                0x000000000800d1a4       0x10 ./build/./components/drivers/serial/serial.o
 .rodata.__FUNCTION__.5738
                0x000000000800d1b4       0x12 ./build/./components/drivers/serial/serial.o
 *fill*         0x000000000800d1c6        0x2 00000000
 .rodata.__FUNCTION__.5753
                0x000000000800d1c8       0x16 ./build/./components/drivers/serial/serial.o
 *fill*         0x000000000800d1de        0x2 00000000
 .rodata.__FUNCTION__.5762
                0x000000000800d1e0       0x11 ./build/./components/drivers/serial/serial.o
 *fill*         0x000000000800d1f1        0x3 00000000
 .rodata.__FUNCTION__.5602
                0x000000000800d1f4       0x13 ./build/./components/drivers/src/completion.o
 *fill*         0x000000000800d207        0x1 00000000
 .rodata.__FUNCTION__.5610
                0x000000000800d208       0x13 ./build/./components/drivers/src/completion.o
 *fill*         0x000000000800d21b        0x1 00000000
 .rodata.__FUNCTION__.5617
                0x000000000800d21c       0x13 ./build/./components/drivers/src/completion.o
 *fill*         0x000000000800d22f        0x1 00000000
 .rodata.__FUNCTION__.5608
                0x000000000800d230       0x13 ./build/./components/drivers/src/dataqueue.o
 *fill*         0x000000000800d243        0x1 00000000
 .rodata.__FUNCTION__.5618
                0x000000000800d244       0x13 ./build/./components/drivers/src/dataqueue.o
 *fill*         0x000000000800d257        0x1 00000000
 .rodata.__FUNCTION__.5633
                0x000000000800d258       0x12 ./build/./components/drivers/src/dataqueue.o
 *fill*         0x000000000800d26a        0x2 00000000
 .rodata.__FUNCTION__.5645
                0x000000000800d26c       0x13 ./build/./components/drivers/src/dataqueue.o
 *fill*         0x000000000800d27f        0x1 00000000
 .rodata.__FUNCTION__.5651
                0x000000000800d280       0x14 ./build/./components/drivers/src/dataqueue.o
 .rodata.__FUNCTION__.5662
                0x000000000800d294       0x15 ./build/./components/drivers/src/dataqueue.o
 *fill*         0x000000000800d2a9        0x3 00000000
 .rodata.name   0x000000000800d2ac      0x3c6 ./build/./components/finsh/cmd.o
                0x000000000800d2ac                __fsym_hello_name
                0x000000000800d2b4                __fsym_hello_desc
                0x000000000800d2c4                __fsym_clear_name
                0x000000000800d2cc                __fsym_clear_desc
                0x000000000800d2e8                __fsym___cmd_clear_name
                0x000000000800d2f4                __fsym___cmd_clear_desc
                0x000000000800d310                __fsym_version_name
                0x000000000800d318                __fsym_version_desc
                0x000000000800d33c                __fsym___cmd_version_name
                0x000000000800d34c                __fsym___cmd_version_desc
                0x000000000800d370                __fsym_list_thread_name
                0x000000000800d37c                __fsym_list_thread_desc
                0x000000000800d388                __fsym___cmd_list_thread_name
                0x000000000800d39c                __fsym___cmd_list_thread_desc
                0x000000000800d3a8                __fsym_list_sem_name
                0x000000000800d3b4                __fsym_list_sem_desc
                0x000000000800d3d0                __fsym___cmd_list_sem_name
                0x000000000800d3e0                __fsym___cmd_list_sem_desc
                0x000000000800d3fc                __fsym_list_event_name
                0x000000000800d408                __fsym_list_event_desc
                0x000000000800d420                __fsym___cmd_list_event_name
                0x000000000800d434                __fsym___cmd_list_event_desc
                0x000000000800d44c                __fsym_list_mutex_name
                0x000000000800d458                __fsym_list_mutex_desc
                0x000000000800d470                __fsym___cmd_list_mutex_name
                0x000000000800d484                __fsym___cmd_list_mutex_desc
                0x000000000800d49c                __fsym_list_mailbox_name
                0x000000000800d4ac                __fsym_list_mailbox_desc
                0x000000000800d4c4                __fsym___cmd_list_mailbox_name
                0x000000000800d4d8                __fsym___cmd_list_mailbox_desc
                0x000000000800d4f0                __fsym_list_msgqueue_name
                0x000000000800d500                __fsym_list_msgqueue_desc
                0x000000000800d520                __fsym___cmd_list_msgqueue_name
                0x000000000800d534                __fsym___cmd_list_msgqueue_desc
                0x000000000800d554                __fsym_list_mempool_name
                0x000000000800d564                __fsym_list_mempool_desc
                0x000000000800d580                __fsym___cmd_list_mempool_name
                0x000000000800d594                __fsym___cmd_list_mempool_desc
                0x000000000800d5b0                __fsym_list_timer_name
                0x000000000800d5bc                __fsym_list_timer_desc
                0x000000000800d5d4                __fsym___cmd_list_timer_name
                0x000000000800d5e8                __fsym___cmd_list_timer_desc
                0x000000000800d600                __fsym_list_device_name
                0x000000000800d60c                __fsym_list_device_desc
                0x000000000800d624                __fsym___cmd_list_device_name
                0x000000000800d638                __fsym___cmd_list_device_desc
                0x000000000800d650                __fsym_list_name
                0x000000000800d658                __fsym_list_desc
 *fill*         0x000000000800d672        0x2 00000000
 .rodata.device_type_str
                0x000000000800d674       0x58 ./build/./components/finsh/cmd.o
 .rodata.name   0x000000000800d6cc       0x7d ./build/./components/finsh/msh.o
                0x000000000800d6cc                __fsym___cmd_help_name
                0x000000000800d6d8                __fsym___cmd_help_desc
                0x000000000800d6f0                __fsym___cmd_ps_name
                0x000000000800d6fc                __fsym___cmd_ps_desc
                0x000000000800d718                __fsym___cmd_free_name
                0x000000000800d724                __fsym___cmd_free_desc
 *fill*         0x000000000800d749        0x3 00000000
 .rodata.__FUNCTION__.5491
                0x000000000800d74c        0xe ./build/./components/finsh/msh.o
 *fill*         0x000000000800d75a        0x2 00000000
 .rodata.__FUNCTION__.5497
                0x000000000800d75c       0x16 ./build/./components/finsh/shell.o
 *fill*         0x000000000800d772        0x2 00000000
 .rodata.__FUNCTION__.5502
                0x000000000800d774        0xe ./build/./components/finsh/shell.o
 *fill*         0x000000000800d782        0x2 00000000
 .rodata.__FUNCTION__.5510
                0x000000000800d784        0xd ./build/./components/finsh/shell.o
 *fill*         0x000000000800d791        0x3 00000000
 .rodata.__FUNCTION__.5515
                0x000000000800d794       0x11 ./build/./components/finsh/shell.o
 *fill*         0x000000000800d7a5        0x3 00000000
 .rodata.__FUNCTION__.5258
                0x000000000800d7a8       0x14 ./build/./src/components.o
 .rodata.__FUNCTION__.5150
                0x000000000800d7bc        0xf ./build/./src/device.o
 *fill*         0x000000000800d7cb        0x1 00000000
 .rodata.__FUNCTION__.5174
                0x000000000800d7cc        0xf ./build/./src/device.o
 *fill*         0x000000000800d7db        0x1 00000000
 .rodata.__FUNCTION__.5179
                0x000000000800d7dc       0x10 ./build/./src/device.o
 .rodata.__FUNCTION__.5186
                0x000000000800d7ec        0xf ./build/./src/device.o
 *fill*         0x000000000800d7fb        0x1 00000000
 .rodata.__FUNCTION__.5193
                0x000000000800d7fc       0x10 ./build/./src/device.o
 .rodata.__FUNCTION__.5206
                0x000000000800d80c       0x1a ./build/./src/device.o
 *fill*         0x000000000800d826        0x2 00000000
 .rodata.__FUNCTION__.5241
                0x000000000800d828       0x16 ./build/./src/idle.o
 *fill*         0x000000000800d83e        0x2 00000000
 .rodata.__FUNCTION__.5246
                0x000000000800d840        0xc ./build/./src/ipc.o
 .rodata.__FUNCTION__.5270
                0x000000000800d84c        0xc ./build/./src/ipc.o
 .rodata.__FUNCTION__.5281
                0x000000000800d858        0xf ./build/./src/ipc.o
 *fill*         0x000000000800d867        0x1 00000000
 .rodata.__lowest_bit_bitmap
                0x000000000800d868      0x100 ./build/./src/kservice.o
                0x000000000800d868                __lowest_bit_bitmap
 .rodata.large_digits.5380
                0x000000000800d968       0x11 ./build/./src/kservice.o
 *fill*         0x000000000800d979        0x3 00000000
 .rodata.small_digits.5379
                0x000000000800d97c       0x11 ./build/./src/kservice.o
 *fill*         0x000000000800d98d        0x3 00000000
 .rodata.name   0x000000000800d990       0x2a ./build/./src/mem.o
                0x000000000800d990                __fsym_list_mem_name
                0x000000000800d99c                __fsym_list_mem_desc
 *fill*         0x000000000800d9ba        0x2 00000000
 .rodata.__FUNCTION__.5237
                0x000000000800d9bc        0xb ./build/./src/mem.o
 *fill*         0x000000000800d9c7        0x1 00000000
 .rodata.__FUNCTION__.5246
                0x000000000800d9c8       0x14 ./build/./src/mem.o
 .rodata.__FUNCTION__.5255
                0x000000000800d9dc        0xa ./build/./src/mem.o
 *fill*         0x000000000800d9e6        0x2 00000000
 .rodata.__FUNCTION__.5284
                0x000000000800d9e8        0x8 ./build/./src/mem.o
 .rodata.__FUNCTION__.5289
                0x000000000800d9f0        0xf ./build/./src/object.o
 *fill*         0x000000000800d9ff        0x1 00000000
 .rodata.__FUNCTION__.5298
                0x000000000800da00       0x11 ./build/./src/object.o
 *fill*         0x000000000800da11        0x3 00000000
 .rodata.__FUNCTION__.5307
                0x000000000800da14       0x13 ./build/./src/object.o
 *fill*         0x000000000800da27        0x1 00000000
 .rodata.__FUNCTION__.5312
                0x000000000800da28       0x11 ./build/./src/object.o
 *fill*         0x000000000800da39        0x3 00000000
 .rodata.__FUNCTION__.5316
                0x000000000800da3c       0x1a ./build/./src/object.o
 *fill*         0x000000000800da56        0x2 00000000
 .rodata.__FUNCTION__.5320
                0x000000000800da58       0x13 ./build/./src/object.o
 *fill*         0x000000000800da6b        0x1 00000000
 .rodata.__FUNCTION__.5224
                0x000000000800da6c       0x1a ./build/./src/scheduler.o
 *fill*         0x000000000800da86        0x2 00000000
 .rodata.__FUNCTION__.5265
                0x000000000800da88       0x1a ./build/./src/scheduler.o
 *fill*         0x000000000800daa2        0x2 00000000
 .rodata.__FUNCTION__.5271
                0x000000000800daa4       0x1a ./build/./src/scheduler.o
 *fill*         0x000000000800dabe        0x2 00000000
 .rodata.__FUNCTION__.5241
                0x000000000800dac0       0x10 ./build/./src/thread.o
 .rodata.__FUNCTION__.5253
                0x000000000800dad0        0xf ./build/./src/thread.o
 *fill*         0x000000000800dadf        0x1 00000000
 .rodata.__FUNCTION__.5262
                0x000000000800dae0       0x12 ./build/./src/thread.o
 *fill*         0x000000000800daf2        0x2 00000000
 .rodata.__FUNCTION__.5292
                0x000000000800daf4       0x10 ./build/./src/thread.o
 .rodata.__FUNCTION__.5324
                0x000000000800db04       0x12 ./build/./src/thread.o
 *fill*         0x000000000800db16        0x2 00000000
 .rodata.__FUNCTION__.5329
                0x000000000800db18       0x11 ./build/./src/thread.o
 *fill*         0x000000000800db29        0x3 00000000
 .rodata.__FUNCTION__.5334
                0x000000000800db2c       0x12 ./build/./src/thread.o
 *fill*         0x000000000800db3e        0x2 00000000
 .rodata.__FUNCTION__.5257
                0x000000000800db40        0xe ./build/./src/timer.o
 *fill*         0x000000000800db4e        0x2 00000000
 .rodata.__FUNCTION__.5262
                0x000000000800db50       0x10 ./build/./src/timer.o
 .rodata.__FUNCTION__.5286
                0x000000000800db60        0xf ./build/./src/timer.o
 *fill*         0x000000000800db6f        0x1 00000000
 .rodata.__FUNCTION__.5303
                0x000000000800db70        0xe ./build/./src/timer.o
 *fill*         0x000000000800db7e        0x2 00000000
 .rodata.__FUNCTION__.5309
                0x000000000800db80       0x11 ./build/./src/timer.o
 *fill*         0x000000000800db91        0x3 00000000
 .rodata.str1.4
                0x000000000800db94        0x4 /usr/lib/gcc/arm-none-eabi/6.3.1/../../../arm-none-eabi/lib/thumb/v7-m/libc.a(lib_a-impure.o)
                                          0x2 (size before relaxing)
 *(.glue_7)
 .glue_7        0x000000000800db98        0x0 linker stubs
 *(.glue_7t)
 .glue_7t       0x000000000800db98        0x0 linker stubs
 *(.gnu.linkonce.t*)
                0x000000000800db98                . = ALIGN (0x4)
                0x000000000800db98                __fsymtab_start = .
 *(FSymTab)
 FSymTab        0x000000000800db98        0xc ./build/./bsp/stm32/libraries/HAL_Drivers/drv_common.o
                0x000000000800db98                __fsym___cmd_reboot
 FSymTab        0x000000000800dba4       0x24 ./build/./components/drivers/misc/pin.o
                0x000000000800dba4                __fsym_pinMode
                0x000000000800dbb0                __fsym_pinWrite
                0x000000000800dbbc                __fsym_pinRead
 FSymTab        0x000000000800dbc8      0x120 ./build/./components/finsh/cmd.o
                0x000000000800dbc8                __fsym_hello
                0x000000000800dbd4                __fsym_clear
                0x000000000800dbe0                __fsym___cmd_clear
                0x000000000800dbec                __fsym_version
                0x000000000800dbf8                __fsym___cmd_version
                0x000000000800dc04                __fsym_list_thread
                0x000000000800dc10                __fsym___cmd_list_thread
                0x000000000800dc1c                __fsym_list_sem
                0x000000000800dc28                __fsym___cmd_list_sem
                0x000000000800dc34                __fsym_list_event
                0x000000000800dc40                __fsym___cmd_list_event
                0x000000000800dc4c                __fsym_list_mutex
                0x000000000800dc58                __fsym___cmd_list_mutex
                0x000000000800dc64                __fsym_list_mailbox
                0x000000000800dc70                __fsym___cmd_list_mailbox
                0x000000000800dc7c                __fsym_list_msgqueue
                0x000000000800dc88                __fsym___cmd_list_msgqueue
                0x000000000800dc94                __fsym_list_mempool
                0x000000000800dca0                __fsym___cmd_list_mempool
                0x000000000800dcac                __fsym_list_timer
                0x000000000800dcb8                __fsym___cmd_list_timer
                0x000000000800dcc4                __fsym_list_device
                0x000000000800dcd0                __fsym___cmd_list_device
                0x000000000800dcdc                __fsym_list
 FSymTab        0x000000000800dce8       0x24 ./build/./components/finsh/msh.o
                0x000000000800dce8                __fsym___cmd_help
                0x000000000800dcf4                __fsym___cmd_ps
                0x000000000800dd00                __fsym___cmd_free
 FSymTab        0x000000000800dd0c        0xc ./build/./src/mem.o
                0x000000000800dd0c                __fsym_list_mem
                0x000000000800dd18                __fsymtab_end = .
                0x000000000800dd18                . = ALIGN (0x4)
                0x000000000800dd18                __vsymtab_start = .
 *(VSymTab)
                0x000000000800dd18                __vsymtab_end = .
                0x000000000800dd18                . = ALIGN (0x4)
                0x000000000800dd18                __rt_init_start = .
 *(SORT(.rti_fn*))
 .rti_fn.0      0x000000000800dd18        0x4 ./build/./src/components.o
                0x000000000800dd18                __rt_init_rti_start
 .rti_fn.0.end  0x000000000800dd1c        0x4 ./build/./src/components.o
                0x000000000800dd1c                __rt_init_rti_board_start
 .rti_fn.1.end  0x000000000800dd20        0x4 ./build/./src/components.o
                0x000000000800dd20                __rt_init_rti_board_end
 .rti_fn.6      0x000000000800dd24        0x4 ./build/./components/finsh/shell.o
                0x000000000800dd24                __rt_init_finsh_system_init
 .rti_fn.6.end  0x000000000800dd28        0x4 ./build/./src/components.o
                0x000000000800dd28                __rt_init_rti_end
                0x000000000800dd2c                __rt_init_end = .
                0x000000000800dd2c                . = ALIGN (0x4)
                [!provide]                        PROVIDE (__ctors_start__, .)
 *(SORT(.init_array.*))
 .init_array.00000
                0x000000000800dd2c        0x4 /usr/lib/gcc/arm-none-eabi/6.3.1/../../../arm-none-eabi/lib/thumb/v7-m/libc.a(lib_a-__call_atexit.o)
 *(.init_array)
 .init_array    0x000000000800dd30        0x4 /usr/lib/gcc/arm-none-eabi/6.3.1/thumb/v7-m/crtbegin.o
                [!provide]                        PROVIDE (__ctors_end__, .)
                0x000000000800dd34                . = ALIGN (0x4)
                0x000000000800dd34                _etext = .
                0x000000000800dd34                __exidx_start = .

.vfp11_veneer   0x000000000800dd34        0x0
 .vfp11_veneer  0x000000000800dd34        0x0 linker stubs

.v4_bx          0x000000000800dd34        0x0
 .v4_bx         0x000000000800dd34        0x0 linker stubs

.init           0x000000000800dd34        0x4
 .init          0x000000000800dd34        0x4 /usr/lib/gcc/arm-none-eabi/6.3.1/thumb/v7-m/crti.o
                0x000000000800dd34                _init

.fini           0x000000000800dd38        0x4
 .fini          0x000000000800dd38        0x4 /usr/lib/gcc/arm-none-eabi/6.3.1/thumb/v7-m/crti.o
                0x000000000800dd38                _fini

.iplt           0x000000000800dd3c        0x0
 .iplt          0x000000000800dd3c        0x0 /usr/lib/gcc/arm-none-eabi/6.3.1/thumb/v7-m/crtbegin.o

.eh_frame       0x000000000800dd3c        0x0
 .eh_frame      0x000000000800dd3c        0x0 /usr/lib/gcc/arm-none-eabi/6.3.1/thumb/v7-m/crtbegin.o

.rel.dyn        0x000000000800dd3c        0x0
 .rel.iplt      0x000000000800dd3c        0x0 /usr/lib/gcc/arm-none-eabi/6.3.1/thumb/v7-m/crtbegin.o

.ARM.exidx      0x000000000800dd3c        0x0
 *(.ARM.exidx* .gnu.linkonce.armexidx.*)
                0x000000000800dd3c                _sidata = .
                0x000000000800dd3c                __exidx_end = .

.data           0x0000000020000000      0x5ac load address 0x000000000800dd3c
                0x0000000020000000                . = ALIGN (0x4)
                0x0000000020000000                _sdata = .
 *(.data)
 .data          0x0000000020000000      0x430 /usr/lib/gcc/arm-none-eabi/6.3.1/../../../arm-none-eabi/lib/thumb/v7-m/libc.a(lib_a-impure.o)
                0x0000000020000000                _impure_ptr
 *(.data.*)
 .data.pin_irq_hdr_tab
                0x0000000020000430       0xc0 ./build/./bsp/stm32/libraries/HAL_Drivers/drv_gpio.o
 .data.uart_config
                0x00000000200004f0       0x14 ./build/./bsp/stm32/libraries/HAL_Drivers/drv_usart.o
 .data.uart1_dma_rx.7310
                0x0000000020000504        0xc ./build/./bsp/stm32/libraries/HAL_Drivers/drv_usart.o
 .data.SystemCoreClock
                0x0000000020000510        0x4 ./build/./bsp/stm32/libraries/STM32F1xx_HAL/CMSIS/Device/ST/STM32F1xx/Source/Templates/system_stm32f1xx.o
                0x0000000020000510                SystemCoreClock
 .data.uwTickPrio
                0x0000000020000514        0x4 ./build/./bsp/stm32/libraries/STM32F1xx_HAL/STM32F1xx_HAL_Driver/Src/stm32f1xx_hal.o
                0x0000000020000514                uwTickPrio
 .data.uwTickFreq
                0x0000000020000518        0x1 ./build/./bsp/stm32/libraries/STM32F1xx_HAL/STM32F1xx_HAL_Driver/Src/stm32f1xx_hal.o
                0x0000000020000518                uwTickFreq
 *fill*         0x0000000020000519        0x3 
 .data.rt_object_container
                0x000000002000051c       0x90 ./build/./src/object.o
 *(.gnu.linkonce.d*)
                [!provide]                        PROVIDE (__dtors_start__, .)
 *(SORT(.dtors.*))
 *(.dtors)
                [!provide]                        PROVIDE (__dtors_end__, .)
                0x00000000200005ac                . = ALIGN (0x4)
                0x00000000200005ac                _edata = .

.jcr            0x00000000200005ac        0x0 load address 0x000000000800e2e8
 .jcr           0x00000000200005ac        0x0 /usr/lib/gcc/arm-none-eabi/6.3.1/thumb/v7-m/crtbegin.o

.tm_clone_table
                0x00000000200005ac        0x0 load address 0x000000000800e2e8
 .tm_clone_table
                0x00000000200005ac        0x0 /usr/lib/gcc/arm-none-eabi/6.3.1/thumb/v7-m/crtbegin.o
 .tm_clone_table
                0x00000000200005ac        0x0 /usr/lib/gcc/arm-none-eabi/6.3.1/thumb/v7-m/crtend.o

.igot.plt       0x00000000200005ac        0x0 load address 0x000000000800e2e8
 .igot.plt      0x00000000200005ac        0x0 /usr/lib/gcc/arm-none-eabi/6.3.1/thumb/v7-m/crtbegin.o

.stack          0x00000000200005ac      0x200 load address 0x000000000800e2e8
                0x00000000200005ac                . = ALIGN (0x4)
                0x00000000200005ac                _sstack = .
                0x00000000200007ac                . = (. + _system_stack_size)
 *fill*         0x00000000200005ac      0x200 
                0x00000000200007ac                . = ALIGN (0x4)
                0x00000000200007ac                _estack = .
                0x00000000200007ac                __bss_start = .

.bss            0x00000000200007ac      0x5fc load address 0x000000000800e4e8
                0x00000000200007ac                . = ALIGN (0x4)
                0x00000000200007ac                _sbss = .
 *(.bss)
 .bss           0x00000000200007ac       0x1c /usr/lib/gcc/arm-none-eabi/6.3.1/thumb/v7-m/crtbegin.o
 *(.bss.*)
 .bss.pin_irq_enable_mask
                0x00000000200007c8        0x4 ./build/./bsp/stm32/libraries/HAL_Drivers/drv_gpio.o
 .bss.uart_obj  0x00000000200007cc      0x128 ./build/./bsp/stm32/libraries/HAL_Drivers/drv_usart.o
 .bss._hw_pin   0x00000000200008f4       0x44 ./build/./components/drivers/misc/pin.o
 .bss.already_output.5646
                0x0000000020000938        0x4 ./build/./components/drivers/serial/serial.o
 .bss._syscall_table_begin
                0x000000002000093c        0x4 ./build/./components/finsh/shell.o
                0x000000002000093c                _syscall_table_begin
 .bss._syscall_table_end
                0x0000000020000940        0x4 ./build/./components/finsh/shell.o
                0x0000000020000940                _syscall_table_end
 .bss._sysvar_table_begin
                0x0000000020000944        0x4 ./build/./components/finsh/shell.o
                0x0000000020000944                _sysvar_table_begin
 .bss._sysvar_table_end
                0x0000000020000948        0x4 ./build/./components/finsh/shell.o
                0x0000000020000948                _sysvar_table_end
 .bss.finsh_prompt_custom
                0x000000002000094c        0x4 ./build/./components/finsh/shell.o
 .bss.finsh_prompt.5489
                0x0000000020000950       0x81 ./build/./components/finsh/shell.o
 *fill*         0x00000000200009d1        0x3 
 .bss.rt_exception_hook
                0x00000000200009d4        0x4 ./build/./libcpu/arm/cortex-m3/cpuport.o
 .bss.rt_tick   0x00000000200009d8        0x4 ./build/./src/clock.o
 .bss.idle      0x00000000200009dc       0x80 ./build/./src/idle.o
 .bss.rt_thread_stack
                0x0000000020000a5c      0x100 ./build/./src/idle.o
 .bss.idle_hook_list
                0x0000000020000b5c       0x10 ./build/./src/idle.o
 .bss.rt_interrupt_enter_hook
                0x0000000020000b6c        0x4 ./build/./src/irq.o
 .bss.rt_interrupt_leave_hook
                0x0000000020000b70        0x4 ./build/./src/irq.o
 .bss.rt_interrupt_nest
                0x0000000020000b74        0x1 ./build/./src/irq.o
                0x0000000020000b74                rt_interrupt_nest
 *fill*         0x0000000020000b75        0x3 
 .bss.__rt_errno
                0x0000000020000b78        0x4 ./build/./src/kservice.o
 .bss._console_device
                0x0000000020000b7c        0x4 ./build/./src/kservice.o
 .bss.rt_log_buf.5490
                0x0000000020000b80       0x80 ./build/./src/kservice.o
 .bss.rt_malloc_hook
                0x0000000020000c00        0x4 ./build/./src/mem.o
 .bss.rt_free_hook
                0x0000000020000c04        0x4 ./build/./src/mem.o
 .bss.heap_ptr  0x0000000020000c08        0x4 ./build/./src/mem.o
 .bss.heap_end  0x0000000020000c0c        0x4 ./build/./src/mem.o
 .bss.lfree     0x0000000020000c10        0x4 ./build/./src/mem.o
 .bss.heap_sem  0x0000000020000c14       0x20 ./build/./src/mem.o
 .bss.mem_size_aligned
                0x0000000020000c34        0x4 ./build/./src/mem.o
 .bss.used_mem  0x0000000020000c38        0x4 ./build/./src/mem.o
 .bss.max_mem   0x0000000020000c3c        0x4 ./build/./src/mem.o
 .bss.rt_object_attach_hook
                0x0000000020000c40        0x4 ./build/./src/object.o
 .bss.rt_object_detach_hook
                0x0000000020000c44        0x4 ./build/./src/object.o
 .bss.rt_scheduler_lock_nest
                0x0000000020000c48        0x2 ./build/./src/scheduler.o
 *fill*         0x0000000020000c4a        0x2 
 .bss.rt_scheduler_hook
                0x0000000020000c4c        0x4 ./build/./src/scheduler.o
 .bss.rt_thread_suspend_hook
                0x0000000020000c50        0x4 ./build/./src/thread.o
 .bss.rt_thread_resume_hook
                0x0000000020000c54        0x4 ./build/./src/thread.o
 .bss.rt_thread_inited_hook
                0x0000000020000c58        0x4 ./build/./src/thread.o
 .bss.rt_timer_list
                0x0000000020000c5c        0x8 ./build/./src/timer.o
 .bss.rt_timer_enter_hook
                0x0000000020000c64        0x4 ./build/./src/timer.o
 .bss.rt_timer_exit_hook
                0x0000000020000c68        0x4 ./build/./src/timer.o
 .bss.random_nr.5285
                0x0000000020000c6c        0x4 ./build/./src/timer.o
 *(COMMON)
 COMMON         0x0000000020000c70        0x4 ./build/./bsp/stm32/libraries/STM32F1xx_HAL/STM32F1xx_HAL_Driver/Src/stm32f1xx_hal.o
                0x0000000020000c70                uwTick
 COMMON         0x0000000020000c74        0x4 ./build/./components/finsh/shell.o
                0x0000000020000c74                shell
 COMMON         0x0000000020000c78        0xc ./build/./libcpu/arm/cortex-m3/cpuport.o
                0x0000000020000c78                rt_interrupt_to_thread
                0x0000000020000c7c                rt_interrupt_from_thread
                0x0000000020000c80                rt_thread_switch_interrupt_flag
 COMMON         0x0000000020000c84        0x4 ./build/./src/kservice.o
                0x0000000020000c84                rt_assert_hook
 COMMON         0x0000000020000c88        0xc ./build/./src/object.o
                0x0000000020000c88                rt_object_put_hook
                0x0000000020000c8c                rt_object_take_hook
                0x0000000020000c90                rt_object_trytake_hook
 COMMON         0x0000000020000c94      0x114 ./build/./src/scheduler.o
                0x0000000020000c94                rt_thread_priority_table
                0x0000000020000d94                rt_current_priority
                0x0000000020000d98                rt_current_thread
                0x0000000020000d9c                rt_thread_ready_priority_group
                0x0000000020000da0                rt_thread_defunct
                0x0000000020000da8                . = ALIGN (0x4)
                0x0000000020000da8                _ebss = .
 *(.bss.init)
                0x0000000020000da8                __bss_end = .
                0x0000000020000da8                _end = .

.stab
 *(.stab)

.stabstr
 *(.stabstr)

.stab.excl
 *(.stab.excl)

.stab.exclstr
 *(.stab.exclstr)

.stab.index
 *(.stab.index)

.stab.indexstr
 *(.stab.indexstr)

.comment        0x0000000000000000       0x31
 *(.comment)
 .comment       0x0000000000000000       0x31 /usr/lib/gcc/arm-none-eabi/6.3.1/thumb/v7-m/crtbegin.o
                                         0x32 (size before relaxing)
 .comment       0x0000000000000031       0x32 ./build/./bsp/stm32/libraries/HAL_Drivers/drv_common.o
 .comment       0x0000000000000031       0x32 ./build/./bsp/stm32/libraries/HAL_Drivers/drv_gpio.o
 .comment       0x0000000000000031       0x32 ./build/./bsp/stm32/libraries/HAL_Drivers/drv_usart.o
 .comment       0x0000000000000031       0x32 ./build/./bsp/stm32/libraries/STM32F1xx_HAL/CMSIS/Device/ST/STM32F1xx/Source/Templates/system_stm32f1xx.o
 .comment       0x0000000000000031       0x32 ./build/./bsp/stm32/libraries/STM32F1xx_HAL/STM32F1xx_HAL_Driver/Src/stm32f1xx_hal.o
 .comment       0x0000000000000031       0x32 ./build/./bsp/stm32/libraries/STM32F1xx_HAL/STM32F1xx_HAL_Driver/Src/stm32f1xx_hal_cortex.o
 .comment       0x0000000000000031       0x32 ./build/./bsp/stm32/libraries/STM32F1xx_HAL/STM32F1xx_HAL_Driver/Src/stm32f1xx_hal_dma.o
 .comment       0x0000000000000031       0x32 ./build/./bsp/stm32/libraries/STM32F1xx_HAL/STM32F1xx_HAL_Driver/Src/stm32f1xx_hal_gpio.o
 .comment       0x0000000000000031       0x32 ./build/./bsp/stm32/libraries/STM32F1xx_HAL/STM32F1xx_HAL_Driver/Src/stm32f1xx_hal_rcc.o
 .comment       0x0000000000000031       0x32 ./build/./bsp/stm32/libraries/STM32F1xx_HAL/STM32F1xx_HAL_Driver/Src/stm32f1xx_hal_uart.o
 .comment       0x0000000000000031       0x32 ./build/bsp/applications/main.o
 .comment       0x0000000000000031       0x32 ./build/bsp/board/CubeMX_Config/Src/stm32f1xx_hal_msp.o
 .comment       0x0000000000000031       0x32 ./build/bsp/board/board.o
 .comment       0x0000000000000031       0x32 ./build/./components/drivers/misc/pin.o
 .comment       0x0000000000000031       0x32 ./build/./components/drivers/serial/serial.o
 .comment       0x0000000000000031       0x32 ./build/./components/drivers/src/completion.o
 .comment       0x0000000000000031       0x32 ./build/./components/drivers/src/dataqueue.o
 .comment       0x0000000000000031       0x32 ./build/./components/finsh/cmd.o
 .comment       0x0000000000000031       0x32 ./build/./components/finsh/msh.o
 .comment       0x0000000000000031       0x32 ./build/./components/finsh/shell.o
 .comment       0x0000000000000031       0x32 ./build/./components/libc/compilers/minilibc/stdlib.o
 .comment       0x0000000000000031       0x32 ./build/./components/libc/compilers/minilibc/string.o
 .comment       0x0000000000000031       0x32 ./build/./libcpu/arm/cortex-m3/cpuport.o
 .comment       0x0000000000000031       0x32 ./build/./src/clock.o
 .comment       0x0000000000000031       0x32 ./build/./src/components.o
 .comment       0x0000000000000031       0x32 ./build/./src/device.o
 .comment       0x0000000000000031       0x32 ./build/./src/idle.o
 .comment       0x0000000000000031       0x32 ./build/./src/ipc.o
 .comment       0x0000000000000031       0x32 ./build/./src/irq.o
 .comment       0x0000000000000031       0x32 ./build/./src/kservice.o
 .comment       0x0000000000000031       0x32 ./build/./src/mem.o
 .comment       0x0000000000000031       0x32 ./build/./src/object.o
 .comment       0x0000000000000031       0x32 ./build/./src/scheduler.o
 .comment       0x0000000000000031       0x32 ./build/./src/thread.o
 .comment       0x0000000000000031       0x32 ./build/./src/timer.o
 .comment       0x0000000000000031       0x32 /usr/lib/gcc/arm-none-eabi/6.3.1/../../../arm-none-eabi/lib/thumb/v7-m/libc.a(lib_a-atexit.o)
 .comment       0x0000000000000031       0x32 /usr/lib/gcc/arm-none-eabi/6.3.1/../../../arm-none-eabi/lib/thumb/v7-m/libc.a(lib_a-fini.o)
 .comment       0x0000000000000031       0x32 /usr/lib/gcc/arm-none-eabi/6.3.1/../../../arm-none-eabi/lib/thumb/v7-m/libc.a(lib_a-impure.o)
 .comment       0x0000000000000031       0x32 /usr/lib/gcc/arm-none-eabi/6.3.1/../../../arm-none-eabi/lib/thumb/v7-m/libc.a(lib_a-__atexit.o)
 .comment       0x0000000000000031       0x32 /usr/lib/gcc/arm-none-eabi/6.3.1/../../../arm-none-eabi/lib/thumb/v7-m/libc.a(lib_a-__call_atexit.o)
 .comment       0x0000000000000031       0x32 /usr/lib/gcc/arm-none-eabi/6.3.1/thumb/v7-m/crtend.o

.ARM.attributes
                0x0000000000000000       0x29
 .ARM.attributes
                0x0000000000000000       0x1d /usr/lib/gcc/arm-none-eabi/6.3.1/thumb/v7-m/crti.o
 .ARM.attributes
                0x000000000000001d       0x2d /usr/lib/gcc/arm-none-eabi/6.3.1/thumb/v7-m/crtbegin.o
 .ARM.attributes
                0x000000000000004a       0x33 ./build/./bsp/stm32/libraries/HAL_Drivers/drv_common.o
 .ARM.attributes
                0x000000000000007d       0x33 ./build/./bsp/stm32/libraries/HAL_Drivers/drv_gpio.o
 .ARM.attributes
                0x00000000000000b0       0x33 ./build/./bsp/stm32/libraries/HAL_Drivers/drv_usart.o
 .ARM.attributes
                0x00000000000000e3       0x33 ./build/./bsp/stm32/libraries/STM32F1xx_HAL/CMSIS/Device/ST/STM32F1xx/Source/Templates/system_stm32f1xx.o
 .ARM.attributes
                0x0000000000000116       0x33 ./build/./bsp/stm32/libraries/STM32F1xx_HAL/STM32F1xx_HAL_Driver/Src/stm32f1xx_hal.o
 .ARM.attributes
                0x0000000000000149       0x33 ./build/./bsp/stm32/libraries/STM32F1xx_HAL/STM32F1xx_HAL_Driver/Src/stm32f1xx_hal_cortex.o
 .ARM.attributes
                0x000000000000017c       0x33 ./build/./bsp/stm32/libraries/STM32F1xx_HAL/STM32F1xx_HAL_Driver/Src/stm32f1xx_hal_dma.o
 .ARM.attributes
                0x00000000000001af       0x33 ./build/./bsp/stm32/libraries/STM32F1xx_HAL/STM32F1xx_HAL_Driver/Src/stm32f1xx_hal_gpio.o
 .ARM.attributes
                0x00000000000001e2       0x33 ./build/./bsp/stm32/libraries/STM32F1xx_HAL/STM32F1xx_HAL_Driver/Src/stm32f1xx_hal_rcc.o
 .ARM.attributes
                0x0000000000000215       0x33 ./build/./bsp/stm32/libraries/STM32F1xx_HAL/STM32F1xx_HAL_Driver/Src/stm32f1xx_hal_uart.o
 .ARM.attributes
                0x0000000000000248       0x33 ./build/bsp/applications/main.o
 .ARM.attributes
                0x000000000000027b       0x33 ./build/bsp/board/CubeMX_Config/Src/stm32f1xx_hal_msp.o
 .ARM.attributes
                0x00000000000002ae       0x33 ./build/bsp/board/board.o
 .ARM.attributes
                0x00000000000002e1       0x33 ./build/./components/drivers/misc/pin.o
 .ARM.attributes
                0x0000000000000314       0x33 ./build/./components/drivers/serial/serial.o
 .ARM.attributes
                0x0000000000000347       0x33 ./build/./components/drivers/src/completion.o
 .ARM.attributes
                0x000000000000037a       0x33 ./build/./components/drivers/src/dataqueue.o
 .ARM.attributes
                0x00000000000003ad       0x33 ./build/./components/finsh/cmd.o
 .ARM.attributes
                0x00000000000003e0       0x33 ./build/./components/finsh/msh.o
 .ARM.attributes
                0x0000000000000413       0x33 ./build/./components/finsh/shell.o
 .ARM.attributes
                0x0000000000000446       0x33 ./build/./components/libc/compilers/minilibc/stdlib.o
 .ARM.attributes
                0x0000000000000479       0x33 ./build/./components/libc/compilers/minilibc/string.o
 .ARM.attributes
                0x00000000000004ac       0x33 ./build/./libcpu/arm/cortex-m3/cpuport.o
 .ARM.attributes
                0x00000000000004df       0x33 ./build/./src/clock.o
 .ARM.attributes
                0x0000000000000512       0x33 ./build/./src/components.o
 .ARM.attributes
                0x0000000000000545       0x33 ./build/./src/device.o
 .ARM.attributes
                0x0000000000000578       0x33 ./build/./src/idle.o
 .ARM.attributes
                0x00000000000005ab       0x33 ./build/./src/ipc.o
 .ARM.attributes
                0x00000000000005de       0x33 ./build/./src/irq.o
 .ARM.attributes
                0x0000000000000611       0x33 ./build/./src/kservice.o
 .ARM.attributes
                0x0000000000000644       0x33 ./build/./src/mem.o
 .ARM.attributes
                0x0000000000000677       0x33 ./build/./src/object.o
 .ARM.attributes
                0x00000000000006aa       0x33 ./build/./src/scheduler.o
 .ARM.attributes
                0x00000000000006dd       0x33 ./build/./src/thread.o
 .ARM.attributes
                0x0000000000000710       0x33 ./build/./src/timer.o
 .ARM.attributes
                0x0000000000000743       0x21 ./build/./bsp/stm32/libraries/STM32F1xx_HAL/CMSIS/Device/ST/STM32F1xx/Source/Templates/gcc/startup_stm32f103xb.o
 .ARM.attributes
                0x0000000000000764       0x21 ./build/./libcpu/arm/cortex-m3/context_gcc.o
 .ARM.attributes
                0x0000000000000785       0x2d /usr/lib/gcc/arm-none-eabi/6.3.1/../../../arm-none-eabi/lib/thumb/v7-m/libc.a(lib_a-atexit.o)
 .ARM.attributes
                0x00000000000007b2       0x2d /usr/lib/gcc/arm-none-eabi/6.3.1/../../../arm-none-eabi/lib/thumb/v7-m/libc.a(lib_a-fini.o)
 .ARM.attributes
                0x00000000000007df       0x2d /usr/lib/gcc/arm-none-eabi/6.3.1/../../../arm-none-eabi/lib/thumb/v7-m/libc.a(lib_a-impure.o)
 .ARM.attributes
                0x000000000000080c       0x2d /usr/lib/gcc/arm-none-eabi/6.3.1/../../../arm-none-eabi/lib/thumb/v7-m/libc.a(lib_a-__atexit.o)
 .ARM.attributes
                0x0000000000000839       0x2d /usr/lib/gcc/arm-none-eabi/6.3.1/../../../arm-none-eabi/lib/thumb/v7-m/libc.a(lib_a-__call_atexit.o)
 .ARM.attributes
                0x0000000000000866       0x2d /usr/lib/gcc/arm-none-eabi/6.3.1/thumb/v7-m/crtend.o

.debug
 *(.debug)

.line
 *(.line)

.debug_srcinfo
 *(.debug_srcinfo)

.debug_sfnames
 *(.debug_sfnames)

.debug_aranges  0x0000000000000000     0x1538
 *(.debug_aranges)
 .debug_aranges
                0x0000000000000000       0x70 ./build/./bsp/stm32/libraries/HAL_Drivers/drv_common.o
 .debug_aranges
                0x0000000000000070       0xb0 ./build/./bsp/stm32/libraries/HAL_Drivers/drv_gpio.o
 .debug_aranges
                0x0000000000000120       0xb0 ./build/./bsp/stm32/libraries/HAL_Drivers/drv_usart.o
 .debug_aranges
                0x00000000000001d0       0x28 ./build/./bsp/stm32/libraries/STM32F1xx_HAL/CMSIS/Device/ST/STM32F1xx/Source/Templates/system_stm32f1xx.o
 .debug_aranges
                0x00000000000001f8       0xe0 ./build/./bsp/stm32/libraries/STM32F1xx_HAL/STM32F1xx_HAL_Driver/Src/stm32f1xx_hal.o
 .debug_aranges
                0x00000000000002d8      0x100 ./build/./bsp/stm32/libraries/STM32F1xx_HAL/STM32F1xx_HAL_Driver/Src/stm32f1xx_hal_cortex.o
 .debug_aranges
                0x00000000000003d8       0x80 ./build/./bsp/stm32/libraries/STM32F1xx_HAL/STM32F1xx_HAL_Driver/Src/stm32f1xx_hal_dma.o
 .debug_aranges
                0x0000000000000458       0x58 ./build/./bsp/stm32/libraries/STM32F1xx_HAL/STM32F1xx_HAL_Driver/Src/stm32f1xx_hal_gpio.o
 .debug_aranges
                0x00000000000004b0       0x90 ./build/./bsp/stm32/libraries/STM32F1xx_HAL/STM32F1xx_HAL_Driver/Src/stm32f1xx_hal_rcc.o
 .debug_aranges
                0x0000000000000540      0x1d0 ./build/./bsp/stm32/libraries/STM32F1xx_HAL/STM32F1xx_HAL_Driver/Src/stm32f1xx_hal_uart.o
 .debug_aranges
                0x0000000000000710       0x20 ./build/bsp/applications/main.o
 .debug_aranges
                0x0000000000000730       0x50 ./build/bsp/board/CubeMX_Config/Src/stm32f1xx_hal_msp.o
 .debug_aranges
                0x0000000000000780       0x20 ./build/bsp/board/board.o
 .debug_aranges
                0x00000000000007a0       0x68 ./build/./components/drivers/misc/pin.o
 .debug_aranges
                0x0000000000000808       0xb0 ./build/./components/drivers/serial/serial.o
 .debug_aranges
                0x00000000000008b8       0x48 ./build/./components/drivers/src/completion.o
 .debug_aranges
                0x0000000000000900       0x60 ./build/./components/drivers/src/dataqueue.o
 .debug_aranges
                0x0000000000000960       0xb0 ./build/./components/finsh/cmd.o
 .debug_aranges
                0x0000000000000a10       0x68 ./build/./components/finsh/msh.o
 .debug_aranges
                0x0000000000000a78       0xa0 ./build/./components/finsh/shell.o
 .debug_aranges
                0x0000000000000b18       0x48 ./build/./components/libc/compilers/minilibc/stdlib.o
 .debug_aranges
                0x0000000000000b60       0xf0 ./build/./components/libc/compilers/minilibc/string.o
 .debug_aranges
                0x0000000000000c50       0x60 ./build/./libcpu/arm/cortex-m3/cpuport.o
 .debug_aranges
                0x0000000000000cb0       0x40 ./build/./src/clock.o
 .debug_aranges
                0x0000000000000cf0       0x68 ./build/./src/components.o
 .debug_aranges
                0x0000000000000d58       0x88 ./build/./src/device.o
 .debug_aranges
                0x0000000000000de0       0x58 ./build/./src/idle.o
 .debug_aranges
                0x0000000000000e38      0x188 ./build/./src/ipc.o
 .debug_aranges
                0x0000000000000fc0       0x40 ./build/./src/irq.o
 .debug_aranges
                0x0000000000001000      0x120 ./build/./src/kservice.o
 .debug_aranges
                0x0000000000001120       0x68 ./build/./src/mem.o
 .debug_aranges
                0x0000000000001188       0xa8 ./build/./src/object.o
 .debug_aranges
                0x0000000000001230       0x90 ./build/./src/scheduler.o
 .debug_aranges
                0x00000000000012c0       0xd8 ./build/./src/thread.o
 .debug_aranges
                0x0000000000001398       0xb8 ./build/./src/timer.o
 .debug_aranges
                0x0000000000001450       0x28 ./build/./bsp/stm32/libraries/STM32F1xx_HAL/CMSIS/Device/ST/STM32F1xx/Source/Templates/gcc/startup_stm32f103xb.o
 .debug_aranges
                0x0000000000001478       0x20 ./build/./libcpu/arm/cortex-m3/context_gcc.o
 .debug_aranges
                0x0000000000001498       0x20 /usr/lib/gcc/arm-none-eabi/6.3.1/../../../arm-none-eabi/lib/thumb/v7-m/libc.a(lib_a-atexit.o)
 .debug_aranges
                0x00000000000014b8       0x20 /usr/lib/gcc/arm-none-eabi/6.3.1/../../../arm-none-eabi/lib/thumb/v7-m/libc.a(lib_a-fini.o)
 .debug_aranges
                0x00000000000014d8       0x18 /usr/lib/gcc/arm-none-eabi/6.3.1/../../../arm-none-eabi/lib/thumb/v7-m/libc.a(lib_a-impure.o)
 .debug_aranges
                0x00000000000014f0       0x20 /usr/lib/gcc/arm-none-eabi/6.3.1/../../../arm-none-eabi/lib/thumb/v7-m/libc.a(lib_a-__atexit.o)
 .debug_aranges
                0x0000000000001510       0x28 /usr/lib/gcc/arm-none-eabi/6.3.1/../../../arm-none-eabi/lib/thumb/v7-m/libc.a(lib_a-__call_atexit.o)

.debug_pubnames
 *(.debug_pubnames)

.debug_info     0x0000000000000000    0x1a3a8
 *(.debug_info .gnu.linkonce.wi.*)
 .debug_info    0x0000000000000000      0x74a ./build/./bsp/stm32/libraries/HAL_Drivers/drv_common.o
 .debug_info    0x000000000000074a      0xfde ./build/./bsp/stm32/libraries/HAL_Drivers/drv_gpio.o
 .debug_info    0x0000000000001728     0x1901 ./build/./bsp/stm32/libraries/HAL_Drivers/drv_usart.o
 .debug_info    0x0000000000003029      0x525 ./build/./bsp/stm32/libraries/STM32F1xx_HAL/CMSIS/Device/ST/STM32F1xx/Source/Templates/system_stm32f1xx.o
 .debug_info    0x000000000000354e      0x856 ./build/./bsp/stm32/libraries/STM32F1xx_HAL/STM32F1xx_HAL_Driver/Src/stm32f1xx_hal.o
 .debug_info    0x0000000000003da4      0xcc4 ./build/./bsp/stm32/libraries/STM32F1xx_HAL/STM32F1xx_HAL_Driver/Src/stm32f1xx_hal_cortex.o
 .debug_info    0x0000000000004a68      0x8be ./build/./bsp/stm32/libraries/STM32F1xx_HAL/STM32F1xx_HAL_Driver/Src/stm32f1xx_hal_dma.o
 .debug_info    0x0000000000005326      0x786 ./build/./bsp/stm32/libraries/STM32F1xx_HAL/STM32F1xx_HAL_Driver/Src/stm32f1xx_hal_gpio.o
 .debug_info    0x0000000000005aac      0x94a ./build/./bsp/stm32/libraries/STM32F1xx_HAL/STM32F1xx_HAL_Driver/Src/stm32f1xx_hal_rcc.o
 .debug_info    0x00000000000063f6     0x13ea ./build/./bsp/stm32/libraries/STM32F1xx_HAL/STM32F1xx_HAL_Driver/Src/stm32f1xx_hal_uart.o
 .debug_info    0x00000000000077e0      0x24c ./build/bsp/applications/main.o
 .debug_info    0x0000000000007a2c      0xf6c ./build/bsp/board/CubeMX_Config/Src/stm32f1xx_hal_msp.o
 .debug_info    0x0000000000008998      0x38f ./build/bsp/board/board.o
 .debug_info    0x0000000000008d27      0xc21 ./build/./components/drivers/misc/pin.o
 .debug_info    0x0000000000009948     0x12ab ./build/./components/drivers/serial/serial.o
 .debug_info    0x000000000000abf3      0x629 ./build/./components/drivers/src/completion.o
 .debug_info    0x000000000000b21c      0x8e5 ./build/./components/drivers/src/dataqueue.o
 .debug_info    0x000000000000bb01     0x1be2 ./build/./components/finsh/cmd.o
 .debug_info    0x000000000000d6e3      0x743 ./build/./components/finsh/msh.o
 .debug_info    0x000000000000de26      0xe46 ./build/./components/finsh/shell.o
 .debug_info    0x000000000000ec6c      0x296 ./build/./components/libc/compilers/minilibc/stdlib.o
 .debug_info    0x000000000000ef02      0xbd3 ./build/./components/libc/compilers/minilibc/string.o
 .debug_info    0x000000000000fad5      0x4aa ./build/./libcpu/arm/cortex-m3/cpuport.o
 .debug_info    0x000000000000ff7f      0x4e7 ./build/./src/clock.o
 .debug_info    0x0000000000010466      0x5f9 ./build/./src/components.o
 .debug_info    0x0000000000010a5f      0x9e3 ./build/./src/device.o
 .debug_info    0x0000000000011442      0x6ce ./build/./src/idle.o
 .debug_info    0x0000000000011b10     0x1b96 ./build/./src/ipc.o
 .debug_info    0x00000000000136a6      0x269 ./build/./src/irq.o
 .debug_info    0x000000000001390f     0x1312 ./build/./src/kservice.o
 .debug_info    0x0000000000014c21      0x8af ./build/./src/mem.o
 .debug_info    0x00000000000154d0      0x925 ./build/./src/object.o
 .debug_info    0x0000000000015df5      0x883 ./build/./src/scheduler.o
 .debug_info    0x0000000000016678      0xcbe ./build/./src/thread.o
 .debug_info    0x0000000000017336      0x97c ./build/./src/timer.o
 .debug_info    0x0000000000017cb2       0xc2 ./build/./bsp/stm32/libraries/STM32F1xx_HAL/CMSIS/Device/ST/STM32F1xx/Source/Templates/gcc/startup_stm32f103xb.o
 .debug_info    0x0000000000017d74       0x82 ./build/./libcpu/arm/cortex-m3/context_gcc.o
 .debug_info    0x0000000000017df6      0x907 /usr/lib/gcc/arm-none-eabi/6.3.1/../../../arm-none-eabi/lib/thumb/v7-m/libc.a(lib_a-atexit.o)
 .debug_info    0x00000000000186fd       0xfa /usr/lib/gcc/arm-none-eabi/6.3.1/../../../arm-none-eabi/lib/thumb/v7-m/libc.a(lib_a-fini.o)
 .debug_info    0x00000000000187f7      0x8a5 /usr/lib/gcc/arm-none-eabi/6.3.1/../../../arm-none-eabi/lib/thumb/v7-m/libc.a(lib_a-impure.o)
 .debug_info    0x000000000001909c      0x950 /usr/lib/gcc/arm-none-eabi/6.3.1/../../../arm-none-eabi/lib/thumb/v7-m/libc.a(lib_a-__atexit.o)
 .debug_info    0x00000000000199ec      0x9bc /usr/lib/gcc/arm-none-eabi/6.3.1/../../../arm-none-eabi/lib/thumb/v7-m/libc.a(lib_a-__call_atexit.o)

.debug_abbrev   0x0000000000000000     0x53cd
 *(.debug_abbrev)
 .debug_abbrev  0x0000000000000000      0x286 ./build/./bsp/stm32/libraries/HAL_Drivers/drv_common.o
 .debug_abbrev  0x0000000000000286      0x278 ./build/./bsp/stm32/libraries/HAL_Drivers/drv_gpio.o
 .debug_abbrev  0x00000000000004fe      0x304 ./build/./bsp/stm32/libraries/HAL_Drivers/drv_usart.o
 .debug_abbrev  0x0000000000000802      0x171 ./build/./bsp/stm32/libraries/STM32F1xx_HAL/CMSIS/Device/ST/STM32F1xx/Source/Templates/system_stm32f1xx.o
 .debug_abbrev  0x0000000000000973      0x215 ./build/./bsp/stm32/libraries/STM32F1xx_HAL/STM32F1xx_HAL_Driver/Src/stm32f1xx_hal.o
 .debug_abbrev  0x0000000000000b88      0x2eb ./build/./bsp/stm32/libraries/STM32F1xx_HAL/STM32F1xx_HAL_Driver/Src/stm32f1xx_hal_cortex.o
 .debug_abbrev  0x0000000000000e73      0x204 ./build/./bsp/stm32/libraries/STM32F1xx_HAL/STM32F1xx_HAL_Driver/Src/stm32f1xx_hal_dma.o
 .debug_abbrev  0x0000000000001077      0x1e5 ./build/./bsp/stm32/libraries/STM32F1xx_HAL/STM32F1xx_HAL_Driver/Src/stm32f1xx_hal_gpio.o
 .debug_abbrev  0x000000000000125c      0x268 ./build/./bsp/stm32/libraries/STM32F1xx_HAL/STM32F1xx_HAL_Driver/Src/stm32f1xx_hal_rcc.o
 .debug_abbrev  0x00000000000014c4      0x248 ./build/./bsp/stm32/libraries/STM32F1xx_HAL/STM32F1xx_HAL_Driver/Src/stm32f1xx_hal_uart.o
 .debug_abbrev  0x000000000000170c       0xfc ./build/bsp/applications/main.o
 .debug_abbrev  0x0000000000001808      0x1bb ./build/bsp/board/CubeMX_Config/Src/stm32f1xx_hal_msp.o
 .debug_abbrev  0x00000000000019c3      0x123 ./build/bsp/board/board.o
 .debug_abbrev  0x0000000000001ae6      0x1c9 ./build/./components/drivers/misc/pin.o
 .debug_abbrev  0x0000000000001caf      0x271 ./build/./components/drivers/serial/serial.o
 .debug_abbrev  0x0000000000001f20      0x1c3 ./build/./components/drivers/src/completion.o
 .debug_abbrev  0x00000000000020e3      0x211 ./build/./components/drivers/src/dataqueue.o
 .debug_abbrev  0x00000000000022f4      0x29d ./build/./components/finsh/cmd.o
 .debug_abbrev  0x0000000000002591      0x252 ./build/./components/finsh/msh.o
 .debug_abbrev  0x00000000000027e3      0x317 ./build/./components/finsh/shell.o
 .debug_abbrev  0x0000000000002afa      0x151 ./build/./components/libc/compilers/minilibc/stdlib.o
 .debug_abbrev  0x0000000000002c4b      0x20e ./build/./components/libc/compilers/minilibc/string.o
 .debug_abbrev  0x0000000000002e59      0x1f2 ./build/./libcpu/arm/cortex-m3/cpuport.o
 .debug_abbrev  0x000000000000304b      0x18a ./build/./src/clock.o
 .debug_abbrev  0x00000000000031d5      0x1a6 ./build/./src/components.o
 .debug_abbrev  0x000000000000337b      0x1fd ./build/./src/device.o
 .debug_abbrev  0x0000000000003578      0x229 ./build/./src/idle.o
 .debug_abbrev  0x00000000000037a1      0x249 ./build/./src/ipc.o
 .debug_abbrev  0x00000000000039ea      0x156 ./build/./src/irq.o
 .debug_abbrev  0x0000000000003b40      0x322 ./build/./src/kservice.o
 .debug_abbrev  0x0000000000003e62      0x251 ./build/./src/mem.o
 .debug_abbrev  0x00000000000040b3      0x259 ./build/./src/object.o
 .debug_abbrev  0x000000000000430c      0x288 ./build/./src/scheduler.o
 .debug_abbrev  0x0000000000004594      0x27a ./build/./src/thread.o
 .debug_abbrev  0x000000000000480e      0x2cd ./build/./src/timer.o
 .debug_abbrev  0x0000000000004adb       0x12 ./build/./bsp/stm32/libraries/STM32F1xx_HAL/CMSIS/Device/ST/STM32F1xx/Source/Templates/gcc/startup_stm32f103xb.o
 .debug_abbrev  0x0000000000004aed       0x14 ./build/./libcpu/arm/cortex-m3/context_gcc.o
 .debug_abbrev  0x0000000000004b01      0x1f6 /usr/lib/gcc/arm-none-eabi/6.3.1/../../../arm-none-eabi/lib/thumb/v7-m/libc.a(lib_a-atexit.o)
 .debug_abbrev  0x0000000000004cf7       0xbd /usr/lib/gcc/arm-none-eabi/6.3.1/../../../arm-none-eabi/lib/thumb/v7-m/libc.a(lib_a-fini.o)
 .debug_abbrev  0x0000000000004db4      0x189 /usr/lib/gcc/arm-none-eabi/6.3.1/../../../arm-none-eabi/lib/thumb/v7-m/libc.a(lib_a-impure.o)
 .debug_abbrev  0x0000000000004f3d      0x220 /usr/lib/gcc/arm-none-eabi/6.3.1/../../../arm-none-eabi/lib/thumb/v7-m/libc.a(lib_a-__atexit.o)
 .debug_abbrev  0x000000000000515d      0x270 /usr/lib/gcc/arm-none-eabi/6.3.1/../../../arm-none-eabi/lib/thumb/v7-m/libc.a(lib_a-__call_atexit.o)

.debug_line     0x0000000000000000     0x8c5b
 *(.debug_line)
 .debug_line    0x0000000000000000      0x337 ./build/./bsp/stm32/libraries/HAL_Drivers/drv_common.o
 .debug_line    0x0000000000000337      0x49f ./build/./bsp/stm32/libraries/HAL_Drivers/drv_gpio.o
 .debug_line    0x00000000000007d6      0x5f1 ./build/./bsp/stm32/libraries/HAL_Drivers/drv_usart.o
 .debug_line    0x0000000000000dc7      0x284 ./build/./bsp/stm32/libraries/STM32F1xx_HAL/CMSIS/Device/ST/STM32F1xx/Source/Templates/system_stm32f1xx.o
 .debug_line    0x000000000000104b      0x40a ./build/./bsp/stm32/libraries/STM32F1xx_HAL/STM32F1xx_HAL_Driver/Src/stm32f1xx_hal.o
 .debug_line    0x0000000000001455      0x4dc ./build/./bsp/stm32/libraries/STM32F1xx_HAL/STM32F1xx_HAL_Driver/Src/stm32f1xx_hal_cortex.o
 .debug_line    0x0000000000001931      0x697 ./build/./bsp/stm32/libraries/STM32F1xx_HAL/STM32F1xx_HAL_Driver/Src/stm32f1xx_hal_dma.o
 .debug_line    0x0000000000001fc8      0x422 ./build/./bsp/stm32/libraries/STM32F1xx_HAL/STM32F1xx_HAL_Driver/Src/stm32f1xx_hal_gpio.o
 .debug_line    0x00000000000023ea      0x524 ./build/./bsp/stm32/libraries/STM32F1xx_HAL/STM32F1xx_HAL_Driver/Src/stm32f1xx_hal_rcc.o
 .debug_line    0x000000000000290e      0xb53 ./build/./bsp/stm32/libraries/STM32F1xx_HAL/STM32F1xx_HAL_Driver/Src/stm32f1xx_hal_uart.o
 .debug_line    0x0000000000003461      0x1f6 ./build/bsp/applications/main.o
 .debug_line    0x0000000000003657      0x326 ./build/bsp/board/CubeMX_Config/Src/stm32f1xx_hal_msp.o
 .debug_line    0x000000000000397d      0x22f ./build/bsp/board/board.o
 .debug_line    0x0000000000003bac      0x248 ./build/./components/drivers/misc/pin.o
 .debug_line    0x0000000000003df4      0x581 ./build/./components/drivers/serial/serial.o
 .debug_line    0x0000000000004375      0x1ad ./build/./components/drivers/src/completion.o
 .debug_line    0x0000000000004522      0x2c1 ./build/./components/drivers/src/dataqueue.o
 .debug_line    0x00000000000047e3      0x482 ./build/./components/finsh/cmd.o
 .debug_line    0x0000000000004c65      0x28c ./build/./components/finsh/msh.o
 .debug_line    0x0000000000004ef1      0x393 ./build/./components/finsh/shell.o
 .debug_line    0x0000000000005284      0x1a0 ./build/./components/libc/compilers/minilibc/stdlib.o
 .debug_line    0x0000000000005424      0x53a ./build/./components/libc/compilers/minilibc/string.o
 .debug_line    0x000000000000595e      0x1b2 ./build/./libcpu/arm/cortex-m3/cpuport.o
 .debug_line    0x0000000000005b10       0xec ./build/./src/clock.o
 .debug_line    0x0000000000005bfc      0x17d ./build/./src/components.o
 .debug_line    0x0000000000005d79      0x2b2 ./build/./src/device.o
 .debug_line    0x000000000000602b      0x1d8 ./build/./src/idle.o
 .debug_line    0x0000000000006203      0xb69 ./build/./src/ipc.o
 .debug_line    0x0000000000006d6c       0xf5 ./build/./src/irq.o
 .debug_line    0x0000000000006e61      0x5e0 ./build/./src/kservice.o
 .debug_line    0x0000000000007441      0x32c ./build/./src/mem.o
 .debug_line    0x000000000000776d      0x342 ./build/./src/object.o
 .debug_line    0x0000000000007aaf      0x269 ./build/./src/scheduler.o
 .debug_line    0x0000000000007d18      0x427 ./build/./src/thread.o
 .debug_line    0x000000000000813f      0x372 ./build/./src/timer.o
 .debug_line    0x00000000000084b1       0xcb ./build/./bsp/stm32/libraries/STM32F1xx_HAL/CMSIS/Device/ST/STM32F1xx/Source/Templates/gcc/startup_stm32f103xb.o
 .debug_line    0x000000000000857c       0xc4 ./build/./libcpu/arm/cortex-m3/context_gcc.o
 .debug_line    0x0000000000008640      0x151 /usr/lib/gcc/arm-none-eabi/6.3.1/../../../arm-none-eabi/lib/thumb/v7-m/libc.a(lib_a-atexit.o)
 .debug_line    0x0000000000008791       0x9f /usr/lib/gcc/arm-none-eabi/6.3.1/../../../arm-none-eabi/lib/thumb/v7-m/libc.a(lib_a-fini.o)
 .debug_line    0x0000000000008830       0xe9 /usr/lib/gcc/arm-none-eabi/6.3.1/../../../arm-none-eabi/lib/thumb/v7-m/libc.a(lib_a-impure.o)
 .debug_line    0x0000000000008919      0x18f /usr/lib/gcc/arm-none-eabi/6.3.1/../../../arm-none-eabi/lib/thumb/v7-m/libc.a(lib_a-__atexit.o)
 .debug_line    0x0000000000008aa8      0x1b3 /usr/lib/gcc/arm-none-eabi/6.3.1/../../../arm-none-eabi/lib/thumb/v7-m/libc.a(lib_a-__call_atexit.o)

.debug_frame    0x0000000000000000     0x5168
 *(.debug_frame)
 .debug_frame   0x0000000000000000      0x17c ./build/./bsp/stm32/libraries/HAL_Drivers/drv_common.o
 .debug_frame   0x000000000000017c      0x28c ./build/./bsp/stm32/libraries/HAL_Drivers/drv_gpio.o
 .debug_frame   0x0000000000000408      0x2b8 ./build/./bsp/stm32/libraries/HAL_Drivers/drv_usart.o
 .debug_frame   0x00000000000006c0       0x58 ./build/./bsp/stm32/libraries/STM32F1xx_HAL/CMSIS/Device/ST/STM32F1xx/Source/Templates/system_stm32f1xx.o
 .debug_frame   0x0000000000000718      0x334 ./build/./bsp/stm32/libraries/STM32F1xx_HAL/STM32F1xx_HAL_Driver/Src/stm32f1xx_hal.o
 .debug_frame   0x0000000000000a4c      0x428 ./build/./bsp/stm32/libraries/STM32F1xx_HAL/STM32F1xx_HAL_Driver/Src/stm32f1xx_hal_cortex.o
 .debug_frame   0x0000000000000e74      0x208 ./build/./bsp/stm32/libraries/STM32F1xx_HAL/STM32F1xx_HAL_Driver/Src/stm32f1xx_hal_dma.o
 .debug_frame   0x000000000000107c      0x14c ./build/./bsp/stm32/libraries/STM32F1xx_HAL/STM32F1xx_HAL_Driver/Src/stm32f1xx_hal_gpio.o
 .debug_frame   0x00000000000011c8      0x21c ./build/./bsp/stm32/libraries/STM32F1xx_HAL/STM32F1xx_HAL_Driver/Src/stm32f1xx_hal_rcc.o
 .debug_frame   0x00000000000013e4      0x838 ./build/./bsp/stm32/libraries/STM32F1xx_HAL/STM32F1xx_HAL_Driver/Src/stm32f1xx_hal_uart.o
 .debug_frame   0x0000000000001c1c       0x34 ./build/bsp/applications/main.o
 .debug_frame   0x0000000000001c50      0x110 ./build/bsp/board/CubeMX_Config/Src/stm32f1xx_hal_msp.o
 .debug_frame   0x0000000000001d60       0x34 ./build/bsp/board/board.o
 .debug_frame   0x0000000000001d94      0x17c ./build/./components/drivers/misc/pin.o
 .debug_frame   0x0000000000001f10      0x2c4 ./build/./components/drivers/serial/serial.o
 .debug_frame   0x00000000000021d4       0xf4 ./build/./components/drivers/src/completion.o
 .debug_frame   0x00000000000022c8      0x164 ./build/./components/drivers/src/dataqueue.o
 .debug_frame   0x000000000000242c      0x2e8 ./build/./components/finsh/cmd.o
 .debug_frame   0x0000000000002714      0x178 ./build/./components/finsh/msh.o
 .debug_frame   0x000000000000288c      0x25c ./build/./components/finsh/shell.o
 .debug_frame   0x0000000000002ae8       0xf0 ./build/./components/libc/compilers/minilibc/stdlib.o
 .debug_frame   0x0000000000002bd8      0x440 ./build/./components/libc/compilers/minilibc/string.o
 .debug_frame   0x0000000000003018      0x130 ./build/./libcpu/arm/cortex-m3/cpuport.o
 .debug_frame   0x0000000000003148       0xc0 ./build/./src/clock.o
 .debug_frame   0x0000000000003208      0x158 ./build/./src/components.o
 .debug_frame   0x0000000000003360      0x20c ./build/./src/device.o
 .debug_frame   0x000000000000356c      0x134 ./build/./src/idle.o
 .debug_frame   0x00000000000036a0      0x6cc ./build/./src/ipc.o
 .debug_frame   0x0000000000003d6c       0xcc ./build/./src/irq.o
 .debug_frame   0x0000000000003e38      0x538 ./build/./src/kservice.o
 .debug_frame   0x0000000000004370      0x180 ./build/./src/mem.o
 .debug_frame   0x00000000000044f0      0x2c4 ./build/./src/object.o
 .debug_frame   0x00000000000047b4      0x240 ./build/./src/scheduler.o
 .debug_frame   0x00000000000049f4      0x398 ./build/./src/thread.o
 .debug_frame   0x0000000000004d8c      0x304 ./build/./src/timer.o
 .debug_frame   0x0000000000005090       0x20 /usr/lib/gcc/arm-none-eabi/6.3.1/../../../arm-none-eabi/lib/thumb/v7-m/libc.a(lib_a-atexit.o)
 .debug_frame   0x00000000000050b0       0x34 /usr/lib/gcc/arm-none-eabi/6.3.1/../../../arm-none-eabi/lib/thumb/v7-m/libc.a(lib_a-fini.o)
 .debug_frame   0x00000000000050e4       0x34 /usr/lib/gcc/arm-none-eabi/6.3.1/../../../arm-none-eabi/lib/thumb/v7-m/libc.a(lib_a-__atexit.o)
 .debug_frame   0x0000000000005118       0x50 /usr/lib/gcc/arm-none-eabi/6.3.1/../../../arm-none-eabi/lib/thumb/v7-m/libc.a(lib_a-__call_atexit.o)

.debug_str      0x0000000000000000     0x5b48
 *(.debug_str)
 .debug_str     0x0000000000000000      0x712 ./build/./bsp/stm32/libraries/HAL_Drivers/drv_common.o
                                        0x7a5 (size before relaxing)
 .debug_str     0x0000000000000712      0x572 ./build/./bsp/stm32/libraries/HAL_Drivers/drv_gpio.o
                                        0xbab (size before relaxing)
 .debug_str     0x0000000000000c84      0x6e1 ./build/./bsp/stm32/libraries/HAL_Drivers/drv_usart.o
                                       0x1077 (size before relaxing)
 .debug_str     0x0000000000001365       0xf0 ./build/./bsp/stm32/libraries/STM32F1xx_HAL/CMSIS/Device/ST/STM32F1xx/Source/Templates/system_stm32f1xx.o
                                        0x3a7 (size before relaxing)
 .debug_str     0x0000000000001455      0x215 ./build/./bsp/stm32/libraries/STM32F1xx_HAL/STM32F1xx_HAL_Driver/Src/stm32f1xx_hal.o
                                        0x851 (size before relaxing)
 .debug_str     0x000000000000166a      0x331 ./build/./bsp/stm32/libraries/STM32F1xx_HAL/STM32F1xx_HAL_Driver/Src/stm32f1xx_hal_cortex.o
                                        0x9b8 (size before relaxing)
 .debug_str     0x000000000000199b      0x264 ./build/./bsp/stm32/libraries/STM32F1xx_HAL/STM32F1xx_HAL_Driver/Src/stm32f1xx_hal_dma.o
                                        0x6fa (size before relaxing)
 .debug_str     0x0000000000001bff      0x15b ./build/./bsp/stm32/libraries/STM32F1xx_HAL/STM32F1xx_HAL_Driver/Src/stm32f1xx_hal_gpio.o
                                        0x4fe (size before relaxing)
 .debug_str     0x0000000000001d5a      0x33e ./build/./bsp/stm32/libraries/STM32F1xx_HAL/STM32F1xx_HAL_Driver/Src/stm32f1xx_hal_rcc.o
                                        0x6b9 (size before relaxing)
 .debug_str     0x0000000000002098      0x503 ./build/./bsp/stm32/libraries/STM32F1xx_HAL/STM32F1xx_HAL_Driver/Src/stm32f1xx_hal_uart.o
                                        0xc00 (size before relaxing)
 .debug_str     0x000000000000259b       0x14 ./build/bsp/applications/main.o
                                        0x29b (size before relaxing)
 .debug_str     0x00000000000025af      0x2ed ./build/bsp/board/CubeMX_Config/Src/stm32f1xx_hal_msp.o
                                        0xa10 (size before relaxing)
 .debug_str     0x000000000000289c       0x21 ./build/bsp/board/board.o
                                        0x3c9 (size before relaxing)
 .debug_str     0x00000000000028bd      0x18c ./build/./components/drivers/misc/pin.o
                                        0x76a (size before relaxing)
 .debug_str     0x0000000000002a49      0x2ab ./build/./components/drivers/serial/serial.o
                                        0x8c5 (size before relaxing)
 .debug_str     0x0000000000002cf4      0x14d ./build/./components/drivers/src/completion.o
                                        0x3fb (size before relaxing)
 .debug_str     0x0000000000002e41       0xa0 ./build/./components/drivers/src/dataqueue.o
                                        0x4b9 (size before relaxing)
 .debug_str     0x0000000000002ee1      0xa42 ./build/./components/finsh/cmd.o
                                       0x1130 (size before relaxing)
 .debug_str     0x0000000000003923      0x1b4 ./build/./components/finsh/msh.o
                                        0x451 (size before relaxing)
 .debug_str     0x0000000000003ad7      0x26f ./build/./components/finsh/shell.o
                                        0x941 (size before relaxing)
 .debug_str     0x0000000000003d46       0x47 ./build/./components/libc/compilers/minilibc/stdlib.o
                                        0x214 (size before relaxing)
 .debug_str     0x0000000000003d8d      0x16f ./build/./components/libc/compilers/minilibc/string.o
                                        0x379 (size before relaxing)
 .debug_str     0x0000000000003efc      0x18b ./build/./libcpu/arm/cortex-m3/cpuport.o
                                        0x398 (size before relaxing)
 .debug_str     0x0000000000004087       0x73 ./build/./src/clock.o
                                        0x383 (size before relaxing)
 .debug_str     0x00000000000040fa       0xe9 ./build/./src/components.o
                                        0x434 (size before relaxing)
 .debug_str     0x00000000000041e3      0x12a ./build/./src/device.o
                                        0x799 (size before relaxing)
 .debug_str     0x000000000000430d      0x10b ./build/./src/idle.o
                                        0x42e (size before relaxing)
 .debug_str     0x0000000000004418      0x353 ./build/./src/ipc.o
                                        0x93a (size before relaxing)
 .debug_str     0x000000000000476b       0xc7 ./build/./src/irq.o
                                        0x283 (size before relaxing)
 .debug_str     0x0000000000004832      0x2b1 ./build/./src/kservice.o
                                        0x8f8 (size before relaxing)
 .debug_str     0x0000000000004ae3      0x186 ./build/./src/mem.o
                                        0x496 (size before relaxing)
 .debug_str     0x0000000000004c69      0x2b9 ./build/./src/object.o
                                        0x6e5 (size before relaxing)
 .debug_str     0x0000000000004f22      0x1e5 ./build/./src/scheduler.o
                                        0x5cb (size before relaxing)
 .debug_str     0x0000000000005107      0x1da ./build/./src/thread.o
                                        0x730 (size before relaxing)
 .debug_str     0x00000000000052e1      0x1a5 ./build/./src/timer.o
                                        0x604 (size before relaxing)
 .debug_str     0x0000000000005486      0x4b5 /usr/lib/gcc/arm-none-eabi/6.3.1/../../../arm-none-eabi/lib/thumb/v7-m/libc.a(lib_a-atexit.o)
                                        0x5af (size before relaxing)
 .debug_str     0x000000000000593b       0xbe /usr/lib/gcc/arm-none-eabi/6.3.1/../../../arm-none-eabi/lib/thumb/v7-m/libc.a(lib_a-fini.o)
                                        0x1c8 (size before relaxing)
 .debug_str     0x00000000000059f9       0x98 /usr/lib/gcc/arm-none-eabi/6.3.1/../../../arm-none-eabi/lib/thumb/v7-m/libc.a(lib_a-impure.o)
                                        0x564 (size before relaxing)
 .debug_str     0x0000000000005a91       0x41 /usr/lib/gcc/arm-none-eabi/6.3.1/../../../arm-none-eabi/lib/thumb/v7-m/libc.a(lib_a-__atexit.o)
                                        0x5c9 (size before relaxing)
 .debug_str     0x0000000000005ad2       0x76 /usr/lib/gcc/arm-none-eabi/6.3.1/../../../arm-none-eabi/lib/thumb/v7-m/libc.a(lib_a-__call_atexit.o)
                                        0x5da (size before relaxing)

.debug_loc      0x0000000000000000     0xad04
 *(.debug_loc)
 .debug_loc     0x0000000000000000      0x2ec ./build/./bsp/stm32/libraries/HAL_Drivers/drv_common.o
 .debug_loc     0x00000000000002ec      0x50c ./build/./bsp/stm32/libraries/HAL_Drivers/drv_gpio.o
 .debug_loc     0x00000000000007f8      0x5b4 ./build/./bsp/stm32/libraries/HAL_Drivers/drv_usart.o
 .debug_loc     0x0000000000000dac       0xa0 ./build/./bsp/stm32/libraries/STM32F1xx_HAL/CMSIS/Device/ST/STM32F1xx/Source/Templates/system_stm32f1xx.o
 .debug_loc     0x0000000000000e4c      0x698 ./build/./bsp/stm32/libraries/STM32F1xx_HAL/STM32F1xx_HAL_Driver/Src/stm32f1xx_hal.o
 .debug_loc     0x00000000000014e4      0x8f8 ./build/./bsp/stm32/libraries/STM32F1xx_HAL/STM32F1xx_HAL_Driver/Src/stm32f1xx_hal_cortex.o
 .debug_loc     0x0000000000001ddc      0x470 ./build/./bsp/stm32/libraries/STM32F1xx_HAL/STM32F1xx_HAL_Driver/Src/stm32f1xx_hal_dma.o
 .debug_loc     0x000000000000224c      0x2d4 ./build/./bsp/stm32/libraries/STM32F1xx_HAL/STM32F1xx_HAL_Driver/Src/stm32f1xx_hal_gpio.o
 .debug_loc     0x0000000000002520      0x444 ./build/./bsp/stm32/libraries/STM32F1xx_HAL/STM32F1xx_HAL_Driver/Src/stm32f1xx_hal_rcc.o
 .debug_loc     0x0000000000002964     0x1250 ./build/./bsp/stm32/libraries/STM32F1xx_HAL/STM32F1xx_HAL_Driver/Src/stm32f1xx_hal_uart.o
 .debug_loc     0x0000000000003bb4       0x50 ./build/bsp/applications/main.o
 .debug_loc     0x0000000000003c04      0x23c ./build/bsp/board/CubeMX_Config/Src/stm32f1xx_hal_msp.o
 .debug_loc     0x0000000000003e40       0x52 ./build/bsp/board/board.o
 .debug_loc     0x0000000000003e92      0x320 ./build/./components/drivers/misc/pin.o
 .debug_loc     0x00000000000041b2      0x5ce ./build/./components/drivers/serial/serial.o
 .debug_loc     0x0000000000004780      0x204 ./build/./components/drivers/src/completion.o
 .debug_loc     0x0000000000004984      0x2f4 ./build/./components/drivers/src/dataqueue.o
 .debug_loc     0x0000000000004c78      0x5ae ./build/./components/finsh/cmd.o
 .debug_loc     0x0000000000005226      0x322 ./build/./components/finsh/msh.o
 .debug_loc     0x0000000000005548      0x4c0 ./build/./components/finsh/shell.o
 .debug_loc     0x0000000000005a08      0x1f8 ./build/./components/libc/compilers/minilibc/stdlib.o
 .debug_loc     0x0000000000005c00      0x91a ./build/./components/libc/compilers/minilibc/string.o
 .debug_loc     0x000000000000651a      0x228 ./build/./libcpu/arm/cortex-m3/cpuport.o
 .debug_loc     0x0000000000006742      0x184 ./build/./src/clock.o
 .debug_loc     0x00000000000068c6      0x2a8 ./build/./src/components.o
 .debug_loc     0x0000000000006b6e      0x454 ./build/./src/device.o
 .debug_loc     0x0000000000006fc2      0x274 ./build/./src/idle.o
 .debug_loc     0x0000000000007236      0xe84 ./build/./src/ipc.o
 .debug_loc     0x00000000000080ba      0x1a8 ./build/./src/irq.o
 .debug_loc     0x0000000000008262      0xb5c ./build/./src/kservice.o
 .debug_loc     0x0000000000008dbe      0x320 ./build/./src/mem.o
 .debug_loc     0x00000000000090de      0x5f4 ./build/./src/object.o
 .debug_loc     0x00000000000096d2      0x474 ./build/./src/scheduler.o
 .debug_loc     0x0000000000009b46      0x798 ./build/./src/thread.o
 .debug_loc     0x000000000000a2de      0x658 ./build/./src/timer.o
 .debug_loc     0x000000000000a936       0x2c /usr/lib/gcc/arm-none-eabi/6.3.1/../../../arm-none-eabi/lib/thumb/v7-m/libc.a(lib_a-atexit.o)
 .debug_loc     0x000000000000a962       0x5c /usr/lib/gcc/arm-none-eabi/6.3.1/../../../arm-none-eabi/lib/thumb/v7-m/libc.a(lib_a-fini.o)
 .debug_loc     0x000000000000a9be      0x1ad /usr/lib/gcc/arm-none-eabi/6.3.1/../../../arm-none-eabi/lib/thumb/v7-m/libc.a(lib_a-__atexit.o)
 .debug_loc     0x000000000000ab6b      0x199 /usr/lib/gcc/arm-none-eabi/6.3.1/../../../arm-none-eabi/lib/thumb/v7-m/libc.a(lib_a-__call_atexit.o)

.debug_macinfo
 *(.debug_macinfo)

.debug_weaknames
 *(.debug_weaknames)

.debug_funcnames
 *(.debug_funcnames)

.debug_typenames
 *(.debug_typenames)

.debug_varnames
 *(.debug_varnames)
OUTPUT(rtthread.elf elf32-littlearm)

.debug_ranges   0x0000000000000000     0x1320
 .debug_ranges  0x0000000000000000       0x60 ./build/./bsp/stm32/libraries/HAL_Drivers/drv_common.o
 .debug_ranges  0x0000000000000060       0xa0 ./build/./bsp/stm32/libraries/HAL_Drivers/drv_gpio.o
 .debug_ranges  0x0000000000000100       0xa0 ./build/./bsp/stm32/libraries/HAL_Drivers/drv_usart.o
 .debug_ranges  0x00000000000001a0       0x18 ./build/./bsp/stm32/libraries/STM32F1xx_HAL/CMSIS/Device/ST/STM32F1xx/Source/Templates/system_stm32f1xx.o
 .debug_ranges  0x00000000000001b8       0xd0 ./build/./bsp/stm32/libraries/STM32F1xx_HAL/STM32F1xx_HAL_Driver/Src/stm32f1xx_hal.o
 .debug_ranges  0x0000000000000288       0xf0 ./build/./bsp/stm32/libraries/STM32F1xx_HAL/STM32F1xx_HAL_Driver/Src/stm32f1xx_hal_cortex.o
 .debug_ranges  0x0000000000000378       0x70 ./build/./bsp/stm32/libraries/STM32F1xx_HAL/STM32F1xx_HAL_Driver/Src/stm32f1xx_hal_dma.o
 .debug_ranges  0x00000000000003e8       0x48 ./build/./bsp/stm32/libraries/STM32F1xx_HAL/STM32F1xx_HAL_Driver/Src/stm32f1xx_hal_gpio.o
 .debug_ranges  0x0000000000000430       0x80 ./build/./bsp/stm32/libraries/STM32F1xx_HAL/STM32F1xx_HAL_Driver/Src/stm32f1xx_hal_rcc.o
 .debug_ranges  0x00000000000004b0      0x1c0 ./build/./bsp/stm32/libraries/STM32F1xx_HAL/STM32F1xx_HAL_Driver/Src/stm32f1xx_hal_uart.o
 .debug_ranges  0x0000000000000670       0x10 ./build/bsp/applications/main.o
 .debug_ranges  0x0000000000000680       0x40 ./build/bsp/board/CubeMX_Config/Src/stm32f1xx_hal_msp.o
 .debug_ranges  0x00000000000006c0       0x10 ./build/bsp/board/board.o
 .debug_ranges  0x00000000000006d0       0x58 ./build/./components/drivers/misc/pin.o
 .debug_ranges  0x0000000000000728       0xe8 ./build/./components/drivers/serial/serial.o
 .debug_ranges  0x0000000000000810       0x38 ./build/./components/drivers/src/completion.o
 .debug_ranges  0x0000000000000848       0x50 ./build/./components/drivers/src/dataqueue.o
 .debug_ranges  0x0000000000000898       0xa0 ./build/./components/finsh/cmd.o
 .debug_ranges  0x0000000000000938       0x58 ./build/./components/finsh/msh.o
 .debug_ranges  0x0000000000000990       0x90 ./build/./components/finsh/shell.o
 .debug_ranges  0x0000000000000a20       0x38 ./build/./components/libc/compilers/minilibc/stdlib.o
 .debug_ranges  0x0000000000000a58       0xe0 ./build/./components/libc/compilers/minilibc/string.o
 .debug_ranges  0x0000000000000b38       0x68 ./build/./libcpu/arm/cortex-m3/cpuport.o
 .debug_ranges  0x0000000000000ba0       0x30 ./build/./src/clock.o
 .debug_ranges  0x0000000000000bd0       0x58 ./build/./src/components.o
 .debug_ranges  0x0000000000000c28       0x78 ./build/./src/device.o
 .debug_ranges  0x0000000000000ca0       0x48 ./build/./src/idle.o
 .debug_ranges  0x0000000000000ce8      0x178 ./build/./src/ipc.o
 .debug_ranges  0x0000000000000e60       0x30 ./build/./src/irq.o
 .debug_ranges  0x0000000000000e90      0x110 ./build/./src/kservice.o
 .debug_ranges  0x0000000000000fa0       0x58 ./build/./src/mem.o
 .debug_ranges  0x0000000000000ff8       0x98 ./build/./src/object.o
 .debug_ranges  0x0000000000001090       0xb0 ./build/./src/scheduler.o
 .debug_ranges  0x0000000000001140       0xc8 ./build/./src/thread.o
 .debug_ranges  0x0000000000001208       0xc0 ./build/./src/timer.o
 .debug_ranges  0x00000000000012c8       0x20 ./build/./bsp/stm32/libraries/STM32F1xx_HAL/CMSIS/Device/ST/STM32F1xx/Source/Templates/gcc/startup_stm32f103xb.o
 .debug_ranges  0x00000000000012e8       0x38 /usr/lib/gcc/arm-none-eabi/6.3.1/../../../arm-none-eabi/lib/thumb/v7-m/libc.a(lib_a-__call_atexit.o)

Cross Reference Table

Symbol                                            File
ADC1_2_IRQHandler                                 ./build/./bsp/stm32/libraries/STM32F1xx_HAL/CMSIS/Device/ST/STM32F1xx/Source/Templates/gcc/startup_stm32f103xb.o
AHBPrescTable                                     ./build/./bsp/stm32/libraries/STM32F1xx_HAL/CMSIS/Device/ST/STM32F1xx/Source/Templates/system_stm32f1xx.o
                                                  ./build/./bsp/stm32/libraries/STM32F1xx_HAL/STM32F1xx_HAL_Driver/Src/stm32f1xx_hal_rcc.o
APBPrescTable                                     ./build/./bsp/stm32/libraries/STM32F1xx_HAL/CMSIS/Device/ST/STM32F1xx/Source/Templates/system_stm32f1xx.o
                                                  ./build/./bsp/stm32/libraries/STM32F1xx_HAL/STM32F1xx_HAL_Driver/Src/stm32f1xx_hal_rcc.o
BusFault_Handler                                  ./build/./bsp/stm32/libraries/STM32F1xx_HAL/CMSIS/Device/ST/STM32F1xx/Source/Templates/gcc/startup_stm32f103xb.o
CAN1_RX1_IRQHandler                               ./build/./bsp/stm32/libraries/STM32F1xx_HAL/CMSIS/Device/ST/STM32F1xx/Source/Templates/gcc/startup_stm32f103xb.o
CAN1_SCE_IRQHandler                               ./build/./bsp/stm32/libraries/STM32F1xx_HAL/CMSIS/Device/ST/STM32F1xx/Source/Templates/gcc/startup_stm32f103xb.o
DMA1_Channel1_IRQHandler                          ./build/./bsp/stm32/libraries/STM32F1xx_HAL/CMSIS/Device/ST/STM32F1xx/Source/Templates/gcc/startup_stm32f103xb.o
DMA1_Channel2_IRQHandler                          ./build/./bsp/stm32/libraries/STM32F1xx_HAL/CMSIS/Device/ST/STM32F1xx/Source/Templates/gcc/startup_stm32f103xb.o
DMA1_Channel3_IRQHandler                          ./build/./bsp/stm32/libraries/STM32F1xx_HAL/CMSIS/Device/ST/STM32F1xx/Source/Templates/gcc/startup_stm32f103xb.o
DMA1_Channel4_IRQHandler                          ./build/./bsp/stm32/libraries/STM32F1xx_HAL/CMSIS/Device/ST/STM32F1xx/Source/Templates/gcc/startup_stm32f103xb.o
DMA1_Channel5_IRQHandler                          ./build/./bsp/stm32/libraries/HAL_Drivers/drv_usart.o
DMA1_Channel6_IRQHandler                          ./build/./bsp/stm32/libraries/STM32F1xx_HAL/CMSIS/Device/ST/STM32F1xx/Source/Templates/gcc/startup_stm32f103xb.o
DMA1_Channel7_IRQHandler                          ./build/./bsp/stm32/libraries/STM32F1xx_HAL/CMSIS/Device/ST/STM32F1xx/Source/Templates/gcc/startup_stm32f103xb.o
DebugMon_Handler                                  ./build/./bsp/stm32/libraries/STM32F1xx_HAL/CMSIS/Device/ST/STM32F1xx/Source/Templates/gcc/startup_stm32f103xb.o
Default_Handler                                   ./build/./bsp/stm32/libraries/STM32F1xx_HAL/CMSIS/Device/ST/STM32F1xx/Source/Templates/gcc/startup_stm32f103xb.o
EXTI0_IRQHandler                                  ./build/./bsp/stm32/libraries/HAL_Drivers/drv_gpio.o
EXTI15_10_IRQHandler                              ./build/./bsp/stm32/libraries/HAL_Drivers/drv_gpio.o
EXTI1_IRQHandler                                  ./build/./bsp/stm32/libraries/HAL_Drivers/drv_gpio.o
EXTI2_IRQHandler                                  ./build/./bsp/stm32/libraries/HAL_Drivers/drv_gpio.o
EXTI3_IRQHandler                                  ./build/./bsp/stm32/libraries/HAL_Drivers/drv_gpio.o
EXTI4_IRQHandler                                  ./build/./bsp/stm32/libraries/HAL_Drivers/drv_gpio.o
EXTI9_5_IRQHandler                                ./build/./bsp/stm32/libraries/HAL_Drivers/drv_gpio.o
FLASH_IRQHandler                                  ./build/./bsp/stm32/libraries/STM32F1xx_HAL/CMSIS/Device/ST/STM32F1xx/Source/Templates/gcc/startup_stm32f103xb.o
HAL_ADC_MspDeInit                                 ./build/bsp/board/CubeMX_Config/Src/stm32f1xx_hal_msp.o
HAL_ADC_MspInit                                   ./build/bsp/board/CubeMX_Config/Src/stm32f1xx_hal_msp.o
HAL_DBGMCU_DisableDBGSleepMode                    ./build/./bsp/stm32/libraries/STM32F1xx_HAL/STM32F1xx_HAL_Driver/Src/stm32f1xx_hal.o
HAL_DBGMCU_DisableDBGStandbyMode                  ./build/./bsp/stm32/libraries/STM32F1xx_HAL/STM32F1xx_HAL_Driver/Src/stm32f1xx_hal.o
HAL_DBGMCU_DisableDBGStopMode                     ./build/./bsp/stm32/libraries/STM32F1xx_HAL/STM32F1xx_HAL_Driver/Src/stm32f1xx_hal.o
HAL_DBGMCU_EnableDBGSleepMode                     ./build/./bsp/stm32/libraries/STM32F1xx_HAL/STM32F1xx_HAL_Driver/Src/stm32f1xx_hal.o
HAL_DBGMCU_EnableDBGStandbyMode                   ./build/./bsp/stm32/libraries/STM32F1xx_HAL/STM32F1xx_HAL_Driver/Src/stm32f1xx_hal.o
HAL_DBGMCU_EnableDBGStopMode                      ./build/./bsp/stm32/libraries/STM32F1xx_HAL/STM32F1xx_HAL_Driver/Src/stm32f1xx_hal.o
HAL_DMA_Abort                                     ./build/./bsp/stm32/libraries/STM32F1xx_HAL/STM32F1xx_HAL_Driver/Src/stm32f1xx_hal_dma.o
                                                  ./build/./bsp/stm32/libraries/STM32F1xx_HAL/STM32F1xx_HAL_Driver/Src/stm32f1xx_hal_uart.o
                                                  ./build/./bsp/stm32/libraries/HAL_Drivers/drv_usart.o
HAL_DMA_Abort_IT                                  ./build/./bsp/stm32/libraries/STM32F1xx_HAL/STM32F1xx_HAL_Driver/Src/stm32f1xx_hal_dma.o
                                                  ./build/./bsp/stm32/libraries/STM32F1xx_HAL/STM32F1xx_HAL_Driver/Src/stm32f1xx_hal_uart.o
HAL_DMA_DeInit                                    ./build/./bsp/stm32/libraries/STM32F1xx_HAL/STM32F1xx_HAL_Driver/Src/stm32f1xx_hal_dma.o
                                                  ./build/./bsp/stm32/libraries/HAL_Drivers/drv_usart.o
HAL_DMA_GetError                                  ./build/./bsp/stm32/libraries/STM32F1xx_HAL/STM32F1xx_HAL_Driver/Src/stm32f1xx_hal_dma.o
                                                  ./build/./bsp/stm32/libraries/STM32F1xx_HAL/STM32F1xx_HAL_Driver/Src/stm32f1xx_hal_uart.o
HAL_DMA_GetState                                  ./build/./bsp/stm32/libraries/STM32F1xx_HAL/STM32F1xx_HAL_Driver/Src/stm32f1xx_hal_dma.o
HAL_DMA_IRQHandler                                ./build/./bsp/stm32/libraries/STM32F1xx_HAL/STM32F1xx_HAL_Driver/Src/stm32f1xx_hal_dma.o
                                                  ./build/./bsp/stm32/libraries/HAL_Drivers/drv_usart.o
HAL_DMA_Init                                      ./build/./bsp/stm32/libraries/STM32F1xx_HAL/STM32F1xx_HAL_Driver/Src/stm32f1xx_hal_dma.o
                                                  ./build/./bsp/stm32/libraries/HAL_Drivers/drv_usart.o
HAL_DMA_PollForTransfer                           ./build/./bsp/stm32/libraries/STM32F1xx_HAL/STM32F1xx_HAL_Driver/Src/stm32f1xx_hal_dma.o
HAL_DMA_RegisterCallback                          ./build/./bsp/stm32/libraries/STM32F1xx_HAL/STM32F1xx_HAL_Driver/Src/stm32f1xx_hal_dma.o
HAL_DMA_Start                                     ./build/./bsp/stm32/libraries/STM32F1xx_HAL/STM32F1xx_HAL_Driver/Src/stm32f1xx_hal_dma.o
HAL_DMA_Start_IT                                  ./build/./bsp/stm32/libraries/STM32F1xx_HAL/STM32F1xx_HAL_Driver/Src/stm32f1xx_hal_dma.o
                                                  ./build/./bsp/stm32/libraries/STM32F1xx_HAL/STM32F1xx_HAL_Driver/Src/stm32f1xx_hal_uart.o
HAL_DMA_UnRegisterCallback                        ./build/./bsp/stm32/libraries/STM32F1xx_HAL/STM32F1xx_HAL_Driver/Src/stm32f1xx_hal_dma.o
HAL_DeInit                                        ./build/./bsp/stm32/libraries/STM32F1xx_HAL/STM32F1xx_HAL_Driver/Src/stm32f1xx_hal.o
HAL_Delay                                         ./build/./bsp/stm32/libraries/HAL_Drivers/drv_common.o
HAL_GPIOEx_ConfigEventout                         ./build/./bsp/stm32/libraries/STM32F1xx_HAL/STM32F1xx_HAL_Driver/Src/stm32f1xx_hal_gpio_ex.o
HAL_GPIOEx_DisableEventout                        ./build/./bsp/stm32/libraries/STM32F1xx_HAL/STM32F1xx_HAL_Driver/Src/stm32f1xx_hal_gpio_ex.o
HAL_GPIOEx_EnableEventout                         ./build/./bsp/stm32/libraries/STM32F1xx_HAL/STM32F1xx_HAL_Driver/Src/stm32f1xx_hal_gpio_ex.o
HAL_GPIO_DeInit                                   ./build/./bsp/stm32/libraries/STM32F1xx_HAL/STM32F1xx_HAL_Driver/Src/stm32f1xx_hal_gpio.o
                                                  ./build/bsp/board/CubeMX_Config/Src/stm32f1xx_hal_msp.o
                                                  ./build/./bsp/stm32/libraries/HAL_Drivers/drv_gpio.o
HAL_GPIO_EXTI_Callback                            ./build/./bsp/stm32/libraries/HAL_Drivers/drv_gpio.o
HAL_GPIO_EXTI_IRQHandler                          ./build/./bsp/stm32/libraries/STM32F1xx_HAL/STM32F1xx_HAL_Driver/Src/stm32f1xx_hal_gpio.o
                                                  ./build/./bsp/stm32/libraries/HAL_Drivers/drv_gpio.o
HAL_GPIO_Init                                     ./build/./bsp/stm32/libraries/STM32F1xx_HAL/STM32F1xx_HAL_Driver/Src/stm32f1xx_hal_gpio.o
                                                  ./build/bsp/board/CubeMX_Config/Src/stm32f1xx_hal_msp.o
                                                  ./build/./bsp/stm32/libraries/STM32F1xx_HAL/STM32F1xx_HAL_Driver/Src/stm32f1xx_hal_rcc.o
                                                  ./build/./bsp/stm32/libraries/HAL_Drivers/drv_gpio.o
HAL_GPIO_LockPin                                  ./build/./bsp/stm32/libraries/STM32F1xx_HAL/STM32F1xx_HAL_Driver/Src/stm32f1xx_hal_gpio.o
HAL_GPIO_ReadPin                                  ./build/./bsp/stm32/libraries/STM32F1xx_HAL/STM32F1xx_HAL_Driver/Src/stm32f1xx_hal_gpio.o
                                                  ./build/./bsp/stm32/libraries/HAL_Drivers/drv_gpio.o
HAL_GPIO_TogglePin                                ./build/./bsp/stm32/libraries/STM32F1xx_HAL/STM32F1xx_HAL_Driver/Src/stm32f1xx_hal_gpio.o
HAL_GPIO_WritePin                                 ./build/./bsp/stm32/libraries/STM32F1xx_HAL/STM32F1xx_HAL_Driver/Src/stm32f1xx_hal_gpio.o
                                                  ./build/./bsp/stm32/libraries/HAL_Drivers/drv_gpio.o
HAL_GetDEVID                                      ./build/./bsp/stm32/libraries/STM32F1xx_HAL/STM32F1xx_HAL_Driver/Src/stm32f1xx_hal.o
HAL_GetHalVersion                                 ./build/./bsp/stm32/libraries/STM32F1xx_HAL/STM32F1xx_HAL_Driver/Src/stm32f1xx_hal.o
HAL_GetREVID                                      ./build/./bsp/stm32/libraries/STM32F1xx_HAL/STM32F1xx_HAL_Driver/Src/stm32f1xx_hal.o
HAL_GetTick                                       ./build/./bsp/stm32/libraries/HAL_Drivers/drv_common.o
                                                  ./build/./bsp/stm32/libraries/STM32F1xx_HAL/STM32F1xx_HAL_Driver/Src/stm32f1xx_hal_uart.o
                                                  ./build/./bsp/stm32/libraries/STM32F1xx_HAL/STM32F1xx_HAL_Driver/Src/stm32f1xx_hal_rcc_ex.o
                                                  ./build/./bsp/stm32/libraries/STM32F1xx_HAL/STM32F1xx_HAL_Driver/Src/stm32f1xx_hal_rcc.o
                                                  ./build/./bsp/stm32/libraries/STM32F1xx_HAL/STM32F1xx_HAL_Driver/Src/stm32f1xx_hal_dma.o
HAL_GetTickFreq                                   ./build/./bsp/stm32/libraries/STM32F1xx_HAL/STM32F1xx_HAL_Driver/Src/stm32f1xx_hal.o
HAL_GetTickPrio                                   ./build/./bsp/stm32/libraries/STM32F1xx_HAL/STM32F1xx_HAL_Driver/Src/stm32f1xx_hal.o
HAL_GetUIDw0                                      ./build/./bsp/stm32/libraries/STM32F1xx_HAL/STM32F1xx_HAL_Driver/Src/stm32f1xx_hal.o
HAL_GetUIDw1                                      ./build/./bsp/stm32/libraries/STM32F1xx_HAL/STM32F1xx_HAL_Driver/Src/stm32f1xx_hal.o
HAL_GetUIDw2                                      ./build/./bsp/stm32/libraries/STM32F1xx_HAL/STM32F1xx_HAL_Driver/Src/stm32f1xx_hal.o
HAL_HalfDuplex_EnableReceiver                     ./build/./bsp/stm32/libraries/STM32F1xx_HAL/STM32F1xx_HAL_Driver/Src/stm32f1xx_hal_uart.o
HAL_HalfDuplex_EnableTransmitter                  ./build/./bsp/stm32/libraries/STM32F1xx_HAL/STM32F1xx_HAL_Driver/Src/stm32f1xx_hal_uart.o
HAL_HalfDuplex_Init                               ./build/./bsp/stm32/libraries/STM32F1xx_HAL/STM32F1xx_HAL_Driver/Src/stm32f1xx_hal_uart.o
HAL_IncTick                                       ./build/./bsp/stm32/libraries/STM32F1xx_HAL/STM32F1xx_HAL_Driver/Src/stm32f1xx_hal.o
                                                  ./build/./bsp/stm32/libraries/HAL_Drivers/drv_common.o
HAL_Init                                          ./build/./bsp/stm32/libraries/STM32F1xx_HAL/STM32F1xx_HAL_Driver/Src/stm32f1xx_hal.o
                                                  ./build/./bsp/stm32/libraries/HAL_Drivers/drv_common.o
HAL_InitTick                                      ./build/./bsp/stm32/libraries/HAL_Drivers/drv_common.o
                                                  ./build/./bsp/stm32/libraries/STM32F1xx_HAL/STM32F1xx_HAL_Driver/Src/stm32f1xx_hal_rcc.o
HAL_LIN_Init                                      ./build/./bsp/stm32/libraries/STM32F1xx_HAL/STM32F1xx_HAL_Driver/Src/stm32f1xx_hal_uart.o
HAL_LIN_SendBreak                                 ./build/./bsp/stm32/libraries/STM32F1xx_HAL/STM32F1xx_HAL_Driver/Src/stm32f1xx_hal_uart.o
HAL_MspDeInit                                     ./build/./bsp/stm32/libraries/STM32F1xx_HAL/STM32F1xx_HAL_Driver/Src/stm32f1xx_hal.o
HAL_MspInit                                       ./build/bsp/board/CubeMX_Config/Src/stm32f1xx_hal_msp.o
                                                  ./build/./bsp/stm32/libraries/STM32F1xx_HAL/STM32F1xx_HAL_Driver/Src/stm32f1xx_hal.o
HAL_MultiProcessor_EnterMuteMode                  ./build/./bsp/stm32/libraries/STM32F1xx_HAL/STM32F1xx_HAL_Driver/Src/stm32f1xx_hal_uart.o
HAL_MultiProcessor_ExitMuteMode                   ./build/./bsp/stm32/libraries/STM32F1xx_HAL/STM32F1xx_HAL_Driver/Src/stm32f1xx_hal_uart.o
HAL_MultiProcessor_Init                           ./build/./bsp/stm32/libraries/STM32F1xx_HAL/STM32F1xx_HAL_Driver/Src/stm32f1xx_hal_uart.o
HAL_NVIC_ClearPendingIRQ                          ./build/./bsp/stm32/libraries/STM32F1xx_HAL/STM32F1xx_HAL_Driver/Src/stm32f1xx_hal_cortex.o
HAL_NVIC_DisableIRQ                               ./build/./bsp/stm32/libraries/STM32F1xx_HAL/STM32F1xx_HAL_Driver/Src/stm32f1xx_hal_cortex.o
                                                  ./build/./bsp/stm32/libraries/HAL_Drivers/drv_usart.o
                                                  ./build/./bsp/stm32/libraries/HAL_Drivers/drv_gpio.o
HAL_NVIC_EnableIRQ                                ./build/./bsp/stm32/libraries/STM32F1xx_HAL/STM32F1xx_HAL_Driver/Src/stm32f1xx_hal_cortex.o
                                                  ./build/./bsp/stm32/libraries/HAL_Drivers/drv_usart.o
                                                  ./build/./bsp/stm32/libraries/HAL_Drivers/drv_gpio.o
HAL_NVIC_GetActive                                ./build/./bsp/stm32/libraries/STM32F1xx_HAL/STM32F1xx_HAL_Driver/Src/stm32f1xx_hal_cortex.o
HAL_NVIC_GetPendingIRQ                            ./build/./bsp/stm32/libraries/STM32F1xx_HAL/STM32F1xx_HAL_Driver/Src/stm32f1xx_hal_cortex.o
HAL_NVIC_GetPriority                              ./build/./bsp/stm32/libraries/STM32F1xx_HAL/STM32F1xx_HAL_Driver/Src/stm32f1xx_hal_cortex.o
HAL_NVIC_GetPriorityGrouping                      ./build/./bsp/stm32/libraries/STM32F1xx_HAL/STM32F1xx_HAL_Driver/Src/stm32f1xx_hal_cortex.o
HAL_NVIC_SetPendingIRQ                            ./build/./bsp/stm32/libraries/STM32F1xx_HAL/STM32F1xx_HAL_Driver/Src/stm32f1xx_hal_cortex.o
HAL_NVIC_SetPriority                              ./build/./bsp/stm32/libraries/STM32F1xx_HAL/STM32F1xx_HAL_Driver/Src/stm32f1xx_hal_cortex.o
                                                  ./build/./bsp/stm32/libraries/STM32F1xx_HAL/STM32F1xx_HAL_Driver/Src/stm32f1xx_hal.o
                                                  ./build/./bsp/stm32/libraries/HAL_Drivers/drv_usart.o
                                                  ./build/./bsp/stm32/libraries/HAL_Drivers/drv_gpio.o
                                                  ./build/./bsp/stm32/libraries/HAL_Drivers/drv_common.o
HAL_NVIC_SetPriorityGrouping                      ./build/./bsp/stm32/libraries/STM32F1xx_HAL/STM32F1xx_HAL_Driver/Src/stm32f1xx_hal_cortex.o
                                                  ./build/./bsp/stm32/libraries/STM32F1xx_HAL/STM32F1xx_HAL_Driver/Src/stm32f1xx_hal.o
HAL_NVIC_SystemReset                              ./build/./bsp/stm32/libraries/STM32F1xx_HAL/STM32F1xx_HAL_Driver/Src/stm32f1xx_hal_cortex.o
HAL_PWR_ConfigPVD                                 ./build/./bsp/stm32/libraries/STM32F1xx_HAL/STM32F1xx_HAL_Driver/Src/stm32f1xx_hal_pwr.o
HAL_PWR_DeInit                                    ./build/./bsp/stm32/libraries/STM32F1xx_HAL/STM32F1xx_HAL_Driver/Src/stm32f1xx_hal_pwr.o
HAL_PWR_DisableBkUpAccess                         ./build/./bsp/stm32/libraries/STM32F1xx_HAL/STM32F1xx_HAL_Driver/Src/stm32f1xx_hal_pwr.o
HAL_PWR_DisablePVD                                ./build/./bsp/stm32/libraries/STM32F1xx_HAL/STM32F1xx_HAL_Driver/Src/stm32f1xx_hal_pwr.o
HAL_PWR_DisableSEVOnPend                          ./build/./bsp/stm32/libraries/STM32F1xx_HAL/STM32F1xx_HAL_Driver/Src/stm32f1xx_hal_pwr.o
HAL_PWR_DisableSleepOnExit                        ./build/./bsp/stm32/libraries/STM32F1xx_HAL/STM32F1xx_HAL_Driver/Src/stm32f1xx_hal_pwr.o
HAL_PWR_DisableWakeUpPin                          ./build/./bsp/stm32/libraries/STM32F1xx_HAL/STM32F1xx_HAL_Driver/Src/stm32f1xx_hal_pwr.o
HAL_PWR_EnableBkUpAccess                          ./build/./bsp/stm32/libraries/STM32F1xx_HAL/STM32F1xx_HAL_Driver/Src/stm32f1xx_hal_pwr.o
HAL_PWR_EnablePVD                                 ./build/./bsp/stm32/libraries/STM32F1xx_HAL/STM32F1xx_HAL_Driver/Src/stm32f1xx_hal_pwr.o
HAL_PWR_EnableSEVOnPend                           ./build/./bsp/stm32/libraries/STM32F1xx_HAL/STM32F1xx_HAL_Driver/Src/stm32f1xx_hal_pwr.o
HAL_PWR_EnableSleepOnExit                         ./build/./bsp/stm32/libraries/STM32F1xx_HAL/STM32F1xx_HAL_Driver/Src/stm32f1xx_hal_pwr.o
HAL_PWR_EnableWakeUpPin                           ./build/./bsp/stm32/libraries/STM32F1xx_HAL/STM32F1xx_HAL_Driver/Src/stm32f1xx_hal_pwr.o
HAL_PWR_EnterSLEEPMode                            ./build/./bsp/stm32/libraries/STM32F1xx_HAL/STM32F1xx_HAL_Driver/Src/stm32f1xx_hal_pwr.o
HAL_PWR_EnterSTANDBYMode                          ./build/./bsp/stm32/libraries/STM32F1xx_HAL/STM32F1xx_HAL_Driver/Src/stm32f1xx_hal_pwr.o
HAL_PWR_EnterSTOPMode                             ./build/./bsp/stm32/libraries/STM32F1xx_HAL/STM32F1xx_HAL_Driver/Src/stm32f1xx_hal_pwr.o
HAL_PWR_PVDCallback                               ./build/./bsp/stm32/libraries/STM32F1xx_HAL/STM32F1xx_HAL_Driver/Src/stm32f1xx_hal_pwr.o
HAL_PWR_PVD_IRQHandler                            ./build/./bsp/stm32/libraries/STM32F1xx_HAL/STM32F1xx_HAL_Driver/Src/stm32f1xx_hal_pwr.o
HAL_RCCEx_GetPeriphCLKConfig                      ./build/./bsp/stm32/libraries/STM32F1xx_HAL/STM32F1xx_HAL_Driver/Src/stm32f1xx_hal_rcc_ex.o
HAL_RCCEx_GetPeriphCLKFreq                        ./build/./bsp/stm32/libraries/STM32F1xx_HAL/STM32F1xx_HAL_Driver/Src/stm32f1xx_hal_rcc_ex.o
HAL_RCCEx_PeriphCLKConfig                         ./build/./bsp/stm32/libraries/STM32F1xx_HAL/STM32F1xx_HAL_Driver/Src/stm32f1xx_hal_rcc_ex.o
HAL_RCC_CSSCallback                               ./build/./bsp/stm32/libraries/STM32F1xx_HAL/STM32F1xx_HAL_Driver/Src/stm32f1xx_hal_rcc.o
HAL_RCC_ClockConfig                               ./build/./bsp/stm32/libraries/STM32F1xx_HAL/STM32F1xx_HAL_Driver/Src/stm32f1xx_hal_rcc.o
                                                  ./build/bsp/board/board.o
HAL_RCC_DeInit                                    ./build/./bsp/stm32/libraries/STM32F1xx_HAL/STM32F1xx_HAL_Driver/Src/stm32f1xx_hal_rcc.o
HAL_RCC_DisableCSS                                ./build/./bsp/stm32/libraries/STM32F1xx_HAL/STM32F1xx_HAL_Driver/Src/stm32f1xx_hal_rcc.o
HAL_RCC_EnableCSS                                 ./build/./bsp/stm32/libraries/STM32F1xx_HAL/STM32F1xx_HAL_Driver/Src/stm32f1xx_hal_rcc.o
HAL_RCC_GetClockConfig                            ./build/./bsp/stm32/libraries/STM32F1xx_HAL/STM32F1xx_HAL_Driver/Src/stm32f1xx_hal_rcc.o
HAL_RCC_GetHCLKFreq                               ./build/./bsp/stm32/libraries/STM32F1xx_HAL/STM32F1xx_HAL_Driver/Src/stm32f1xx_hal_rcc.o
                                                  ./build/./bsp/stm32/libraries/HAL_Drivers/drv_common.o
HAL_RCC_GetOscConfig                              ./build/./bsp/stm32/libraries/STM32F1xx_HAL/STM32F1xx_HAL_Driver/Src/stm32f1xx_hal_rcc.o
HAL_RCC_GetPCLK1Freq                              ./build/./bsp/stm32/libraries/STM32F1xx_HAL/STM32F1xx_HAL_Driver/Src/stm32f1xx_hal_rcc.o
                                                  ./build/./bsp/stm32/libraries/STM32F1xx_HAL/STM32F1xx_HAL_Driver/Src/stm32f1xx_hal_uart.o
HAL_RCC_GetPCLK2Freq                              ./build/./bsp/stm32/libraries/STM32F1xx_HAL/STM32F1xx_HAL_Driver/Src/stm32f1xx_hal_rcc.o
                                                  ./build/./bsp/stm32/libraries/STM32F1xx_HAL/STM32F1xx_HAL_Driver/Src/stm32f1xx_hal_uart.o
                                                  ./build/./bsp/stm32/libraries/STM32F1xx_HAL/STM32F1xx_HAL_Driver/Src/stm32f1xx_hal_rcc_ex.o
HAL_RCC_GetSysClockFreq                           ./build/./bsp/stm32/libraries/STM32F1xx_HAL/STM32F1xx_HAL_Driver/Src/stm32f1xx_hal_rcc.o
HAL_RCC_MCOConfig                                 ./build/./bsp/stm32/libraries/STM32F1xx_HAL/STM32F1xx_HAL_Driver/Src/stm32f1xx_hal_rcc.o
HAL_RCC_NMI_IRQHandler                            ./build/./bsp/stm32/libraries/STM32F1xx_HAL/STM32F1xx_HAL_Driver/Src/stm32f1xx_hal_rcc.o
HAL_RCC_OscConfig                                 ./build/./bsp/stm32/libraries/STM32F1xx_HAL/STM32F1xx_HAL_Driver/Src/stm32f1xx_hal_rcc.o
                                                  ./build/bsp/board/board.o
HAL_ResumeTick                                    ./build/./bsp/stm32/libraries/HAL_Drivers/drv_common.o
HAL_SPI_MspDeInit                                 ./build/bsp/board/CubeMX_Config/Src/stm32f1xx_hal_msp.o
HAL_SPI_MspInit                                   ./build/bsp/board/CubeMX_Config/Src/stm32f1xx_hal_msp.o
HAL_SYSTICK_CLKSourceConfig                       ./build/./bsp/stm32/libraries/STM32F1xx_HAL/STM32F1xx_HAL_Driver/Src/stm32f1xx_hal_cortex.o
                                                  ./build/./bsp/stm32/libraries/HAL_Drivers/drv_common.o
HAL_SYSTICK_Callback                              ./build/./bsp/stm32/libraries/STM32F1xx_HAL/STM32F1xx_HAL_Driver/Src/stm32f1xx_hal_cortex.o
HAL_SYSTICK_Config                                ./build/./bsp/stm32/libraries/STM32F1xx_HAL/STM32F1xx_HAL_Driver/Src/stm32f1xx_hal_cortex.o
                                                  ./build/./bsp/stm32/libraries/STM32F1xx_HAL/STM32F1xx_HAL_Driver/Src/stm32f1xx_hal.o
                                                  ./build/./bsp/stm32/libraries/HAL_Drivers/drv_common.o
HAL_SYSTICK_IRQHandler                            ./build/./bsp/stm32/libraries/STM32F1xx_HAL/STM32F1xx_HAL_Driver/Src/stm32f1xx_hal_cortex.o
HAL_SetTickFreq                                   ./build/./bsp/stm32/libraries/STM32F1xx_HAL/STM32F1xx_HAL_Driver/Src/stm32f1xx_hal.o
HAL_SuspendTick                                   ./build/./bsp/stm32/libraries/HAL_Drivers/drv_common.o
HAL_UART_Abort                                    ./build/./bsp/stm32/libraries/STM32F1xx_HAL/STM32F1xx_HAL_Driver/Src/stm32f1xx_hal_uart.o
HAL_UART_AbortCpltCallback                        ./build/./bsp/stm32/libraries/STM32F1xx_HAL/STM32F1xx_HAL_Driver/Src/stm32f1xx_hal_uart.o
HAL_UART_AbortReceive                             ./build/./bsp/stm32/libraries/STM32F1xx_HAL/STM32F1xx_HAL_Driver/Src/stm32f1xx_hal_uart.o
HAL_UART_AbortReceiveCpltCallback                 ./build/./bsp/stm32/libraries/STM32F1xx_HAL/STM32F1xx_HAL_Driver/Src/stm32f1xx_hal_uart.o
HAL_UART_AbortReceive_IT                          ./build/./bsp/stm32/libraries/STM32F1xx_HAL/STM32F1xx_HAL_Driver/Src/stm32f1xx_hal_uart.o
HAL_UART_AbortTransmit                            ./build/./bsp/stm32/libraries/STM32F1xx_HAL/STM32F1xx_HAL_Driver/Src/stm32f1xx_hal_uart.o
HAL_UART_AbortTransmitCpltCallback                ./build/./bsp/stm32/libraries/STM32F1xx_HAL/STM32F1xx_HAL_Driver/Src/stm32f1xx_hal_uart.o
HAL_UART_AbortTransmit_IT                         ./build/./bsp/stm32/libraries/STM32F1xx_HAL/STM32F1xx_HAL_Driver/Src/stm32f1xx_hal_uart.o
HAL_UART_Abort_IT                                 ./build/./bsp/stm32/libraries/STM32F1xx_HAL/STM32F1xx_HAL_Driver/Src/stm32f1xx_hal_uart.o
HAL_UART_DMAPause                                 ./build/./bsp/stm32/libraries/STM32F1xx_HAL/STM32F1xx_HAL_Driver/Src/stm32f1xx_hal_uart.o
HAL_UART_DMAResume                                ./build/./bsp/stm32/libraries/STM32F1xx_HAL/STM32F1xx_HAL_Driver/Src/stm32f1xx_hal_uart.o
HAL_UART_DMAStop                                  ./build/./bsp/stm32/libraries/STM32F1xx_HAL/STM32F1xx_HAL_Driver/Src/stm32f1xx_hal_uart.o
HAL_UART_DeInit                                   ./build/./bsp/stm32/libraries/STM32F1xx_HAL/STM32F1xx_HAL_Driver/Src/stm32f1xx_hal_uart.o
                                                  ./build/./bsp/stm32/libraries/HAL_Drivers/drv_usart.o
HAL_UART_ErrorCallback                            ./build/./bsp/stm32/libraries/HAL_Drivers/drv_usart.o
HAL_UART_GetError                                 ./build/./bsp/stm32/libraries/STM32F1xx_HAL/STM32F1xx_HAL_Driver/Src/stm32f1xx_hal_uart.o
HAL_UART_GetState                                 ./build/./bsp/stm32/libraries/STM32F1xx_HAL/STM32F1xx_HAL_Driver/Src/stm32f1xx_hal_uart.o
HAL_UART_IRQHandler                               ./build/./bsp/stm32/libraries/STM32F1xx_HAL/STM32F1xx_HAL_Driver/Src/stm32f1xx_hal_uart.o
                                                  ./build/./bsp/stm32/libraries/HAL_Drivers/drv_usart.o
HAL_UART_Init                                     ./build/./bsp/stm32/libraries/STM32F1xx_HAL/STM32F1xx_HAL_Driver/Src/stm32f1xx_hal_uart.o
                                                  ./build/./bsp/stm32/libraries/HAL_Drivers/drv_usart.o
HAL_UART_MspDeInit                                ./build/bsp/board/CubeMX_Config/Src/stm32f1xx_hal_msp.o
                                                  ./build/./bsp/stm32/libraries/STM32F1xx_HAL/STM32F1xx_HAL_Driver/Src/stm32f1xx_hal_uart.o
HAL_UART_MspInit                                  ./build/bsp/board/CubeMX_Config/Src/stm32f1xx_hal_msp.o
                                                  ./build/./bsp/stm32/libraries/STM32F1xx_HAL/STM32F1xx_HAL_Driver/Src/stm32f1xx_hal_uart.o
HAL_UART_Receive                                  ./build/./bsp/stm32/libraries/STM32F1xx_HAL/STM32F1xx_HAL_Driver/Src/stm32f1xx_hal_uart.o
HAL_UART_Receive_DMA                              ./build/./bsp/stm32/libraries/STM32F1xx_HAL/STM32F1xx_HAL_Driver/Src/stm32f1xx_hal_uart.o
                                                  ./build/./bsp/stm32/libraries/HAL_Drivers/drv_usart.o
HAL_UART_Receive_IT                               ./build/./bsp/stm32/libraries/STM32F1xx_HAL/STM32F1xx_HAL_Driver/Src/stm32f1xx_hal_uart.o
HAL_UART_RxCpltCallback                           ./build/./bsp/stm32/libraries/HAL_Drivers/drv_usart.o
HAL_UART_RxHalfCpltCallback                       ./build/./bsp/stm32/libraries/HAL_Drivers/drv_usart.o
HAL_UART_Transmit                                 ./build/./bsp/stm32/libraries/STM32F1xx_HAL/STM32F1xx_HAL_Driver/Src/stm32f1xx_hal_uart.o
HAL_UART_Transmit_DMA                             ./build/./bsp/stm32/libraries/STM32F1xx_HAL/STM32F1xx_HAL_Driver/Src/stm32f1xx_hal_uart.o
                                                  ./build/./bsp/stm32/libraries/HAL_Drivers/drv_usart.o
HAL_UART_Transmit_IT                              ./build/./bsp/stm32/libraries/STM32F1xx_HAL/STM32F1xx_HAL_Driver/Src/stm32f1xx_hal_uart.o
HAL_UART_TxCpltCallback                           ./build/./bsp/stm32/libraries/HAL_Drivers/drv_usart.o
HAL_UART_TxHalfCpltCallback                       ./build/./bsp/stm32/libraries/STM32F1xx_HAL/STM32F1xx_HAL_Driver/Src/stm32f1xx_hal_uart.o
HardFault_Handler                                 ./build/./libcpu/arm/cortex-m3/context_gcc.o
                                                  ./build/./bsp/stm32/libraries/STM32F1xx_HAL/CMSIS/Device/ST/STM32F1xx/Source/Templates/gcc/startup_stm32f103xb.o
I2C1_ER_IRQHandler                                ./build/./bsp/stm32/libraries/STM32F1xx_HAL/CMSIS/Device/ST/STM32F1xx/Source/Templates/gcc/startup_stm32f103xb.o
I2C1_EV_IRQHandler                                ./build/./bsp/stm32/libraries/STM32F1xx_HAL/CMSIS/Device/ST/STM32F1xx/Source/Templates/gcc/startup_stm32f103xb.o
I2C2_ER_IRQHandler                                ./build/./bsp/stm32/libraries/STM32F1xx_HAL/CMSIS/Device/ST/STM32F1xx/Source/Templates/gcc/startup_stm32f103xb.o
I2C2_EV_IRQHandler                                ./build/./bsp/stm32/libraries/STM32F1xx_HAL/CMSIS/Device/ST/STM32F1xx/Source/Templates/gcc/startup_stm32f103xb.o
MemManage_Handler                                 ./build/./bsp/stm32/libraries/STM32F1xx_HAL/CMSIS/Device/ST/STM32F1xx/Source/Templates/gcc/startup_stm32f103xb.o
NMI_Handler                                       ./build/./bsp/stm32/libraries/STM32F1xx_HAL/CMSIS/Device/ST/STM32F1xx/Source/Templates/gcc/startup_stm32f103xb.o
PVD_IRQHandler                                    ./build/./bsp/stm32/libraries/STM32F1xx_HAL/CMSIS/Device/ST/STM32F1xx/Source/Templates/gcc/startup_stm32f103xb.o
PendSV_Handler                                    ./build/./libcpu/arm/cortex-m3/context_gcc.o
                                                  ./build/./bsp/stm32/libraries/STM32F1xx_HAL/CMSIS/Device/ST/STM32F1xx/Source/Templates/gcc/startup_stm32f103xb.o
RCC_IRQHandler                                    ./build/./bsp/stm32/libraries/STM32F1xx_HAL/CMSIS/Device/ST/STM32F1xx/Source/Templates/gcc/startup_stm32f103xb.o
RTC_Alarm_IRQHandler                              ./build/./bsp/stm32/libraries/STM32F1xx_HAL/CMSIS/Device/ST/STM32F1xx/Source/Templates/gcc/startup_stm32f103xb.o
RTC_IRQHandler                                    ./build/./bsp/stm32/libraries/STM32F1xx_HAL/CMSIS/Device/ST/STM32F1xx/Source/Templates/gcc/startup_stm32f103xb.o
Reset_Handler                                     ./build/./bsp/stm32/libraries/STM32F1xx_HAL/CMSIS/Device/ST/STM32F1xx/Source/Templates/gcc/startup_stm32f103xb.o
SPI1_IRQHandler                                   ./build/./bsp/stm32/libraries/STM32F1xx_HAL/CMSIS/Device/ST/STM32F1xx/Source/Templates/gcc/startup_stm32f103xb.o
SPI2_IRQHandler                                   ./build/./bsp/stm32/libraries/STM32F1xx_HAL/CMSIS/Device/ST/STM32F1xx/Source/Templates/gcc/startup_stm32f103xb.o
SVC_Handler                                       ./build/./bsp/stm32/libraries/STM32F1xx_HAL/CMSIS/Device/ST/STM32F1xx/Source/Templates/gcc/startup_stm32f103xb.o
SysTick_Handler                                   ./build/./bsp/stm32/libraries/HAL_Drivers/drv_common.o
SystemClock_Config                                ./build/bsp/board/board.o
                                                  ./build/./bsp/stm32/libraries/HAL_Drivers/drv_common.o
SystemCoreClock                                   ./build/./bsp/stm32/libraries/STM32F1xx_HAL/CMSIS/Device/ST/STM32F1xx/Source/Templates/system_stm32f1xx.o
                                                  ./build/./bsp/stm32/libraries/STM32F1xx_HAL/STM32F1xx_HAL_Driver/Src/stm32f1xx_hal_rcc.o
                                                  ./build/./bsp/stm32/libraries/STM32F1xx_HAL/STM32F1xx_HAL_Driver/Src/stm32f1xx_hal.o
                                                  ./build/./bsp/stm32/libraries/HAL_Drivers/drv_common.o
SystemCoreClockUpdate                             ./build/./bsp/stm32/libraries/STM32F1xx_HAL/CMSIS/Device/ST/STM32F1xx/Source/Templates/system_stm32f1xx.o
SystemInit                                        ./build/./bsp/stm32/libraries/STM32F1xx_HAL/CMSIS/Device/ST/STM32F1xx/Source/Templates/system_stm32f1xx.o
                                                  ./build/./bsp/stm32/libraries/STM32F1xx_HAL/CMSIS/Device/ST/STM32F1xx/Source/Templates/gcc/startup_stm32f103xb.o
TAMPER_IRQHandler                                 ./build/./bsp/stm32/libraries/STM32F1xx_HAL/CMSIS/Device/ST/STM32F1xx/Source/Templates/gcc/startup_stm32f103xb.o
TIM1_BRK_IRQHandler                               ./build/./bsp/stm32/libraries/STM32F1xx_HAL/CMSIS/Device/ST/STM32F1xx/Source/Templates/gcc/startup_stm32f103xb.o
TIM1_CC_IRQHandler                                ./build/./bsp/stm32/libraries/STM32F1xx_HAL/CMSIS/Device/ST/STM32F1xx/Source/Templates/gcc/startup_stm32f103xb.o
TIM1_TRG_COM_IRQHandler                           ./build/./bsp/stm32/libraries/STM32F1xx_HAL/CMSIS/Device/ST/STM32F1xx/Source/Templates/gcc/startup_stm32f103xb.o
TIM1_UP_IRQHandler                                ./build/./bsp/stm32/libraries/STM32F1xx_HAL/CMSIS/Device/ST/STM32F1xx/Source/Templates/gcc/startup_stm32f103xb.o
TIM2_IRQHandler                                   ./build/./bsp/stm32/libraries/STM32F1xx_HAL/CMSIS/Device/ST/STM32F1xx/Source/Templates/gcc/startup_stm32f103xb.o
TIM3_IRQHandler                                   ./build/./bsp/stm32/libraries/STM32F1xx_HAL/CMSIS/Device/ST/STM32F1xx/Source/Templates/gcc/startup_stm32f103xb.o
TIM4_IRQHandler                                   ./build/./bsp/stm32/libraries/STM32F1xx_HAL/CMSIS/Device/ST/STM32F1xx/Source/Templates/gcc/startup_stm32f103xb.o
USART1_IRQHandler                                 ./build/./bsp/stm32/libraries/HAL_Drivers/drv_usart.o
USART2_IRQHandler                                 ./build/./bsp/stm32/libraries/STM32F1xx_HAL/CMSIS/Device/ST/STM32F1xx/Source/Templates/gcc/startup_stm32f103xb.o
USART3_IRQHandler                                 ./build/./bsp/stm32/libraries/STM32F1xx_HAL/CMSIS/Device/ST/STM32F1xx/Source/Templates/gcc/startup_stm32f103xb.o
USBWakeUp_IRQHandler                              ./build/./bsp/stm32/libraries/STM32F1xx_HAL/CMSIS/Device/ST/STM32F1xx/Source/Templates/gcc/startup_stm32f103xb.o
USB_HP_CAN1_TX_IRQHandler                         ./build/./bsp/stm32/libraries/STM32F1xx_HAL/CMSIS/Device/ST/STM32F1xx/Source/Templates/gcc/startup_stm32f103xb.o
USB_LP_CAN1_RX0_IRQHandler                        ./build/./bsp/stm32/libraries/STM32F1xx_HAL/CMSIS/Device/ST/STM32F1xx/Source/Templates/gcc/startup_stm32f103xb.o
UsageFault_Handler                                ./build/./bsp/stm32/libraries/STM32F1xx_HAL/CMSIS/Device/ST/STM32F1xx/Source/Templates/gcc/startup_stm32f103xb.o
WWDG_IRQHandler                                   ./build/./bsp/stm32/libraries/STM32F1xx_HAL/CMSIS/Device/ST/STM32F1xx/Source/Templates/gcc/startup_stm32f103xb.o
_Error_Handler                                    ./build/./bsp/stm32/libraries/HAL_Drivers/drv_common.o
                                                  ./build/bsp/board/board.o
_ITM_deregisterTMCloneTable                       /usr/lib/gcc/arm-none-eabi/6.3.1/thumb/v7-m/crtbegin.o
_ITM_registerTMCloneTable                         /usr/lib/gcc/arm-none-eabi/6.3.1/thumb/v7-m/crtbegin.o
_Jv_RegisterClasses                               /usr/lib/gcc/arm-none-eabi/6.3.1/thumb/v7-m/crtbegin.o
__TMC_END__                                       /usr/lib/gcc/arm-none-eabi/6.3.1/thumb/v7-m/crtend.o
                                                  /usr/lib/gcc/arm-none-eabi/6.3.1/thumb/v7-m/crtbegin.o
__adddf3                                          /usr/lib/gcc/arm-none-eabi/6.3.1/thumb/v7-m/libgcc.a(_arm_addsubdf3.o)
__aeabi_d2iz                                      /usr/lib/gcc/arm-none-eabi/6.3.1/thumb/v7-m/libgcc.a(_arm_fixdfsi.o)
                                                  ./build/./components/libc/compilers/minilibc/math.o
__aeabi_dadd                                      /usr/lib/gcc/arm-none-eabi/6.3.1/thumb/v7-m/libgcc.a(_arm_addsubdf3.o)
                                                  ./build/./components/libc/compilers/minilibc/math.o
__aeabi_ddiv                                      /usr/lib/gcc/arm-none-eabi/6.3.1/thumb/v7-m/libgcc.a(_arm_muldivdf3.o)
__aeabi_dmul                                      /usr/lib/gcc/arm-none-eabi/6.3.1/thumb/v7-m/libgcc.a(_arm_muldivdf3.o)
                                                  ./build/./components/libc/compilers/minilibc/math.o
__aeabi_drsub                                     /usr/lib/gcc/arm-none-eabi/6.3.1/thumb/v7-m/libgcc.a(_arm_addsubdf3.o)
__aeabi_dsub                                      /usr/lib/gcc/arm-none-eabi/6.3.1/thumb/v7-m/libgcc.a(_arm_addsubdf3.o)
                                                  ./build/./components/libc/compilers/minilibc/math.o
__aeabi_f2d                                       /usr/lib/gcc/arm-none-eabi/6.3.1/thumb/v7-m/libgcc.a(_arm_addsubdf3.o)
__aeabi_i2d                                       /usr/lib/gcc/arm-none-eabi/6.3.1/thumb/v7-m/libgcc.a(_arm_addsubdf3.o)
                                                  ./build/./components/libc/compilers/minilibc/math.o
__aeabi_l2d                                       /usr/lib/gcc/arm-none-eabi/6.3.1/thumb/v7-m/libgcc.a(_arm_addsubdf3.o)
__aeabi_ui2d                                      /usr/lib/gcc/arm-none-eabi/6.3.1/thumb/v7-m/libgcc.a(_arm_addsubdf3.o)
__aeabi_ul2d                                      /usr/lib/gcc/arm-none-eabi/6.3.1/thumb/v7-m/libgcc.a(_arm_addsubdf3.o)
__bss_end                                         ./build/./bsp/stm32/libraries/HAL_Drivers/drv_common.o
__bss_end__                                       /usr/lib/gcc/arm-none-eabi/6.3.1/../../../arm-none-eabi/lib/thumb/v7-m/crt0.o
__bss_start__                                     /usr/lib/gcc/arm-none-eabi/6.3.1/../../../arm-none-eabi/lib/thumb/v7-m/crt0.o
__call_exitprocs                                  /usr/lib/gcc/arm-none-eabi/6.3.1/../../../arm-none-eabi/lib/thumb/v7-m/libc.a(lib_a-__call_atexit.o)
                                                  /usr/lib/gcc/arm-none-eabi/6.3.1/../../../arm-none-eabi/lib/thumb/v7-m/libc.a(lib_a-exit.o)
__deregister_frame_info                           /usr/lib/gcc/arm-none-eabi/6.3.1/thumb/v7-m/crtbegin.o
__div0                                            ./build/./libcpu/arm/common/div0.o
__divdf3                                          /usr/lib/gcc/arm-none-eabi/6.3.1/thumb/v7-m/libgcc.a(_arm_muldivdf3.o)
__dso_handle                                      /usr/lib/gcc/arm-none-eabi/6.3.1/thumb/v7-m/crtbegin.o
__extendsfdf2                                     /usr/lib/gcc/arm-none-eabi/6.3.1/thumb/v7-m/libgcc.a(_arm_addsubdf3.o)
__fini_array_end                                  /usr/lib/gcc/arm-none-eabi/6.3.1/../../../arm-none-eabi/lib/thumb/v7-m/libc.a(lib_a-fini.o)
__fini_array_start                                /usr/lib/gcc/arm-none-eabi/6.3.1/../../../arm-none-eabi/lib/thumb/v7-m/libc.a(lib_a-fini.o)
__fixdfsi                                         /usr/lib/gcc/arm-none-eabi/6.3.1/thumb/v7-m/libgcc.a(_arm_fixdfsi.o)
__floatdidf                                       /usr/lib/gcc/arm-none-eabi/6.3.1/thumb/v7-m/libgcc.a(_arm_addsubdf3.o)
__floatsidf                                       /usr/lib/gcc/arm-none-eabi/6.3.1/thumb/v7-m/libgcc.a(_arm_addsubdf3.o)
__floatundidf                                     /usr/lib/gcc/arm-none-eabi/6.3.1/thumb/v7-m/libgcc.a(_arm_addsubdf3.o)
__floatunsidf                                     /usr/lib/gcc/arm-none-eabi/6.3.1/thumb/v7-m/libgcc.a(_arm_addsubdf3.o)
__fsym___cmd_clear                                ./build/./components/finsh/cmd.o
__fsym___cmd_clear_desc                           ./build/./components/finsh/cmd.o
__fsym___cmd_clear_name                           ./build/./components/finsh/cmd.o
__fsym___cmd_free                                 ./build/./components/finsh/msh.o
__fsym___cmd_free_desc                            ./build/./components/finsh/msh.o
__fsym___cmd_free_name                            ./build/./components/finsh/msh.o
__fsym___cmd_help                                 ./build/./components/finsh/msh.o
__fsym___cmd_help_desc                            ./build/./components/finsh/msh.o
__fsym___cmd_help_name                            ./build/./components/finsh/msh.o
__fsym___cmd_list_device                          ./build/./components/finsh/cmd.o
__fsym___cmd_list_device_desc                     ./build/./components/finsh/cmd.o
__fsym___cmd_list_device_name                     ./build/./components/finsh/cmd.o
__fsym___cmd_list_event                           ./build/./components/finsh/cmd.o
__fsym___cmd_list_event_desc                      ./build/./components/finsh/cmd.o
__fsym___cmd_list_event_name                      ./build/./components/finsh/cmd.o
__fsym___cmd_list_mailbox                         ./build/./components/finsh/cmd.o
__fsym___cmd_list_mailbox_desc                    ./build/./components/finsh/cmd.o
__fsym___cmd_list_mailbox_name                    ./build/./components/finsh/cmd.o
__fsym___cmd_list_mempool                         ./build/./components/finsh/cmd.o
__fsym___cmd_list_mempool_desc                    ./build/./components/finsh/cmd.o
__fsym___cmd_list_mempool_name                    ./build/./components/finsh/cmd.o
__fsym___cmd_list_msgqueue                        ./build/./components/finsh/cmd.o
__fsym___cmd_list_msgqueue_desc                   ./build/./components/finsh/cmd.o
__fsym___cmd_list_msgqueue_name                   ./build/./components/finsh/cmd.o
__fsym___cmd_list_mutex                           ./build/./components/finsh/cmd.o
__fsym___cmd_list_mutex_desc                      ./build/./components/finsh/cmd.o
__fsym___cmd_list_mutex_name                      ./build/./components/finsh/cmd.o
__fsym___cmd_list_sem                             ./build/./components/finsh/cmd.o
__fsym___cmd_list_sem_desc                        ./build/./components/finsh/cmd.o
__fsym___cmd_list_sem_name                        ./build/./components/finsh/cmd.o
__fsym___cmd_list_thread                          ./build/./components/finsh/cmd.o
__fsym___cmd_list_thread_desc                     ./build/./components/finsh/cmd.o
__fsym___cmd_list_thread_name                     ./build/./components/finsh/cmd.o
__fsym___cmd_list_timer                           ./build/./components/finsh/cmd.o
__fsym___cmd_list_timer_desc                      ./build/./components/finsh/cmd.o
__fsym___cmd_list_timer_name                      ./build/./components/finsh/cmd.o
__fsym___cmd_ps                                   ./build/./components/finsh/msh.o
__fsym___cmd_ps_desc                              ./build/./components/finsh/msh.o
__fsym___cmd_ps_name                              ./build/./components/finsh/msh.o
__fsym___cmd_reboot                               ./build/./bsp/stm32/libraries/HAL_Drivers/drv_common.o
__fsym___cmd_reboot_desc                          ./build/./bsp/stm32/libraries/HAL_Drivers/drv_common.o
__fsym___cmd_reboot_name                          ./build/./bsp/stm32/libraries/HAL_Drivers/drv_common.o
__fsym___cmd_version                              ./build/./components/finsh/cmd.o
__fsym___cmd_version_desc                         ./build/./components/finsh/cmd.o
__fsym___cmd_version_name                         ./build/./components/finsh/cmd.o
__fsym_clear                                      ./build/./components/finsh/cmd.o
__fsym_clear_desc                                 ./build/./components/finsh/cmd.o
__fsym_clear_name                                 ./build/./components/finsh/cmd.o
__fsym_hello                                      ./build/./components/finsh/cmd.o
__fsym_hello_desc                                 ./build/./components/finsh/cmd.o
__fsym_hello_name                                 ./build/./components/finsh/cmd.o
__fsym_list                                       ./build/./components/finsh/cmd.o
__fsym_list_desc                                  ./build/./components/finsh/cmd.o
__fsym_list_device                                ./build/./components/finsh/cmd.o
__fsym_list_device_desc                           ./build/./components/finsh/cmd.o
__fsym_list_device_name                           ./build/./components/finsh/cmd.o
__fsym_list_event                                 ./build/./components/finsh/cmd.o
__fsym_list_event_desc                            ./build/./components/finsh/cmd.o
__fsym_list_event_name                            ./build/./components/finsh/cmd.o
__fsym_list_mailbox                               ./build/./components/finsh/cmd.o
__fsym_list_mailbox_desc                          ./build/./components/finsh/cmd.o
__fsym_list_mailbox_name                          ./build/./components/finsh/cmd.o
__fsym_list_mem                                   ./build/./src/mem.o
__fsym_list_mem_desc                              ./build/./src/mem.o
__fsym_list_mem_name                              ./build/./src/mem.o
__fsym_list_mempool                               ./build/./components/finsh/cmd.o
__fsym_list_mempool_desc                          ./build/./components/finsh/cmd.o
__fsym_list_mempool_name                          ./build/./components/finsh/cmd.o
__fsym_list_msgqueue                              ./build/./components/finsh/cmd.o
__fsym_list_msgqueue_desc                         ./build/./components/finsh/cmd.o
__fsym_list_msgqueue_name                         ./build/./components/finsh/cmd.o
__fsym_list_mutex                                 ./build/./components/finsh/cmd.o
__fsym_list_mutex_desc                            ./build/./components/finsh/cmd.o
__fsym_list_mutex_name                            ./build/./components/finsh/cmd.o
__fsym_list_name                                  ./build/./components/finsh/cmd.o
__fsym_list_sem                                   ./build/./components/finsh/cmd.o
__fsym_list_sem_desc                              ./build/./components/finsh/cmd.o
__fsym_list_sem_name                              ./build/./components/finsh/cmd.o
__fsym_list_thread                                ./build/./components/finsh/cmd.o
__fsym_list_thread_desc                           ./build/./components/finsh/cmd.o
__fsym_list_thread_name                           ./build/./components/finsh/cmd.o
__fsym_list_timer                                 ./build/./components/finsh/cmd.o
__fsym_list_timer_desc                            ./build/./components/finsh/cmd.o
__fsym_list_timer_name                            ./build/./components/finsh/cmd.o
__fsym_pinMode                                    ./build/./components/drivers/misc/pin.o
__fsym_pinMode_desc                               ./build/./components/drivers/misc/pin.o
__fsym_pinMode_name                               ./build/./components/drivers/misc/pin.o
__fsym_pinRead                                    ./build/./components/drivers/misc/pin.o
__fsym_pinRead_desc                               ./build/./components/drivers/misc/pin.o
__fsym_pinRead_name                               ./build/./components/drivers/misc/pin.o
__fsym_pinWrite                                   ./build/./components/drivers/misc/pin.o
__fsym_pinWrite_desc                              ./build/./components/drivers/misc/pin.o
__fsym_pinWrite_name                              ./build/./components/drivers/misc/pin.o
__fsym_version                                    ./build/./components/finsh/cmd.o
__fsym_version_desc                               ./build/./components/finsh/cmd.o
__fsym_version_name                               ./build/./components/finsh/cmd.o
__fsymtab_end                                     ./build/./components/finsh/shell.o
__fsymtab_start                                   ./build/./components/finsh/shell.o
__init_array_end                                  /usr/lib/gcc/arm-none-eabi/6.3.1/../../../arm-none-eabi/lib/thumb/v7-m/libc.a(lib_a-init.o)
__init_array_start                                /usr/lib/gcc/arm-none-eabi/6.3.1/../../../arm-none-eabi/lib/thumb/v7-m/libc.a(lib_a-init.o)
__isleap                                          ./build/./components/libc/compilers/minilibc/time.o
__libc_fini                                       /usr/lib/gcc/arm-none-eabi/6.3.1/../../../arm-none-eabi/lib/thumb/v7-m/libc.a(lib_a-__call_atexit.o)
__libc_fini_array                                 /usr/lib/gcc/arm-none-eabi/6.3.1/../../../arm-none-eabi/lib/thumb/v7-m/libc.a(lib_a-fini.o)
                                                  /usr/lib/gcc/arm-none-eabi/6.3.1/../../../arm-none-eabi/lib/thumb/v7-m/libc.a(lib_a-__call_atexit.o)
                                                  /usr/lib/gcc/arm-none-eabi/6.3.1/../../../arm-none-eabi/lib/thumb/v7-m/crt0.o
__libc_init_array                                 /usr/lib/gcc/arm-none-eabi/6.3.1/../../../arm-none-eabi/lib/thumb/v7-m/libc.a(lib_a-init.o)
                                                  /usr/lib/gcc/arm-none-eabi/6.3.1/../../../arm-none-eabi/lib/thumb/v7-m/crt0.o
__lowest_bit_bitmap                               ./build/./src/kservice.o
__muldf3                                          /usr/lib/gcc/arm-none-eabi/6.3.1/thumb/v7-m/libgcc.a(_arm_muldivdf3.o)
__preinit_array_end                               /usr/lib/gcc/arm-none-eabi/6.3.1/../../../arm-none-eabi/lib/thumb/v7-m/libc.a(lib_a-init.o)
__preinit_array_start                             /usr/lib/gcc/arm-none-eabi/6.3.1/../../../arm-none-eabi/lib/thumb/v7-m/libc.a(lib_a-init.o)
__register_exitproc                               /usr/lib/gcc/arm-none-eabi/6.3.1/../../../arm-none-eabi/lib/thumb/v7-m/libc.a(lib_a-__atexit.o)
                                                  /usr/lib/gcc/arm-none-eabi/6.3.1/../../../arm-none-eabi/lib/thumb/v7-m/libc.a(lib_a-atexit.o)
__register_frame_info                             /usr/lib/gcc/arm-none-eabi/6.3.1/thumb/v7-m/crtbegin.o
__rt_ffs                                          ./build/./src/kservice.o
                                                  ./build/./src/scheduler.o
__rt_init_finsh_system_init                       ./build/./components/finsh/shell.o
__rt_init_rti_board_end                           ./build/./src/components.o
__rt_init_rti_board_start                         ./build/./src/components.o
__rt_init_rti_end                                 ./build/./src/components.o
__rt_init_rti_start                               ./build/./src/components.o
__spm                                             ./build/./components/libc/compilers/minilibc/time.o
__stack                                           /usr/lib/gcc/arm-none-eabi/6.3.1/../../../arm-none-eabi/lib/thumb/v7-m/crt0.o
__subdf3                                          /usr/lib/gcc/arm-none-eabi/6.3.1/thumb/v7-m/libgcc.a(_arm_addsubdf3.o)
__vsymtab_end                                     ./build/./components/finsh/shell.o
__vsymtab_start                                   ./build/./components/finsh/shell.o
__wqueue_default_wake                             ./build/./components/drivers/src/waitqueue.o
_ctype                                            ./build/./components/libc/compilers/minilibc/string.o
_ebss                                             ./build/./bsp/stm32/libraries/STM32F1xx_HAL/CMSIS/Device/ST/STM32F1xx/Source/Templates/gcc/startup_stm32f103xb.o
_edata                                            ./build/./bsp/stm32/libraries/STM32F1xx_HAL/CMSIS/Device/ST/STM32F1xx/Source/Templates/gcc/startup_stm32f103xb.o
_estack                                           ./build/./bsp/stm32/libraries/STM32F1xx_HAL/CMSIS/Device/ST/STM32F1xx/Source/Templates/gcc/startup_stm32f103xb.o
_exit                                             /usr/lib/gcc/arm-none-eabi/6.3.1/../../../arm-none-eabi/lib/thumb/v7-m/libc.a(lib_a-exit.o)
_fini                                             /usr/lib/gcc/arm-none-eabi/6.3.1/thumb/v7-m/crti.o
                                                  /usr/lib/gcc/arm-none-eabi/6.3.1/../../../arm-none-eabi/lib/thumb/v7-m/libc.a(lib_a-fini.o)
_gettimeofday                                     ./build/./components/libc/compilers/minilibc/time.o
_global_impure_ptr                                /usr/lib/gcc/arm-none-eabi/6.3.1/../../../arm-none-eabi/lib/thumb/v7-m/libc.a(lib_a-impure.o)
                                                  /usr/lib/gcc/arm-none-eabi/6.3.1/../../../arm-none-eabi/lib/thumb/v7-m/libc.a(lib_a-__call_atexit.o)
                                                  /usr/lib/gcc/arm-none-eabi/6.3.1/../../../arm-none-eabi/lib/thumb/v7-m/libc.a(lib_a-__atexit.o)
                                                  /usr/lib/gcc/arm-none-eabi/6.3.1/../../../arm-none-eabi/lib/thumb/v7-m/libc.a(lib_a-exit.o)
_impure_ptr                                       /usr/lib/gcc/arm-none-eabi/6.3.1/../../../arm-none-eabi/lib/thumb/v7-m/libc.a(lib_a-impure.o)
_init                                             /usr/lib/gcc/arm-none-eabi/6.3.1/thumb/v7-m/crti.o
                                                  /usr/lib/gcc/arm-none-eabi/6.3.1/../../../arm-none-eabi/lib/thumb/v7-m/libc.a(lib_a-init.o)
_mainCRTStartup                                   /usr/lib/gcc/arm-none-eabi/6.3.1/../../../arm-none-eabi/lib/thumb/v7-m/crt0.o
_rt_errno                                         ./build/./src/kservice.o
_sbss                                             ./build/./bsp/stm32/libraries/STM32F1xx_HAL/CMSIS/Device/ST/STM32F1xx/Source/Templates/gcc/startup_stm32f103xb.o
_sdata                                            ./build/./bsp/stm32/libraries/STM32F1xx_HAL/CMSIS/Device/ST/STM32F1xx/Source/Templates/gcc/startup_stm32f103xb.o
_sidata                                           ./build/./bsp/stm32/libraries/STM32F1xx_HAL/CMSIS/Device/ST/STM32F1xx/Source/Templates/gcc/startup_stm32f103xb.o
_start                                            /usr/lib/gcc/arm-none-eabi/6.3.1/../../../arm-none-eabi/lib/thumb/v7-m/crt0.o
_syscall_table_begin                              ./build/./components/finsh/shell.o
                                                  ./build/./components/finsh/msh.o
                                                  ./build/./components/finsh/cmd.o
_syscall_table_end                                ./build/./components/finsh/shell.o
                                                  ./build/./components/finsh/msh.o
                                                  ./build/./components/finsh/cmd.o
_sysvar_table_begin                               ./build/./components/finsh/shell.o
_sysvar_table_end                                 ./build/./components/finsh/shell.o
asctime                                           ./build/./components/libc/compilers/minilibc/time.o
asctime_r                                         ./build/./components/libc/compilers/minilibc/time.o
atexit                                            /usr/lib/gcc/arm-none-eabi/6.3.1/../../../arm-none-eabi/lib/thumb/v7-m/libc.a(lib_a-atexit.o)
                                                  /usr/lib/gcc/arm-none-eabi/6.3.1/../../../arm-none-eabi/lib/thumb/v7-m/libc.a(lib_a-__call_atexit.o)
                                                  /usr/lib/gcc/arm-none-eabi/6.3.1/../../../arm-none-eabi/lib/thumb/v7-m/crt0.o
atoi                                              ./build/./components/libc/compilers/minilibc/stdlib.o
atol                                              ./build/./components/libc/compilers/minilibc/stdlib.o
calloc                                            ./build/./components/libc/compilers/minilibc/stdlib.o
clear                                             ./build/./components/finsh/cmd.o
clock                                             ./build/./components/libc/compilers/minilibc/time.o
cmd_free                                          ./build/./components/finsh/msh.o
cmd_ps                                            ./build/./components/finsh/msh.o
cos                                               ./build/./components/libc/compilers/minilibc/math.o
ctime                                             ./build/./components/libc/compilers/minilibc/time.o
entry                                             ./build/./src/components.o
                                                  ./build/./bsp/stm32/libraries/STM32F1xx_HAL/CMSIS/Device/ST/STM32F1xx/Source/Templates/gcc/startup_stm32f103xb.o
exit                                              /usr/lib/gcc/arm-none-eabi/6.3.1/../../../arm-none-eabi/lib/thumb/v7-m/libc.a(lib_a-exit.o)
                                                  /usr/lib/gcc/arm-none-eabi/6.3.1/../../../arm-none-eabi/lib/thumb/v7-m/crt0.o
finsh_get_device                                  ./build/./components/finsh/shell.o
finsh_get_echo                                    ./build/./components/finsh/shell.o
finsh_get_prompt                                  ./build/./components/finsh/shell.o
finsh_get_prompt_mode                             ./build/./components/finsh/shell.o
finsh_set_device                                  ./build/./components/finsh/shell.o
finsh_set_echo                                    ./build/./components/finsh/shell.o
finsh_set_prompt                                  ./build/./components/finsh/shell.o
finsh_set_prompt_mode                             ./build/./components/finsh/shell.o
finsh_system_function_init                        ./build/./components/finsh/shell.o
finsh_system_init                                 ./build/./components/finsh/shell.o
finsh_system_var_init                             ./build/./components/finsh/shell.o
finsh_thread_entry                                ./build/./components/finsh/shell.o
free                                              ./build/./components/libc/compilers/minilibc/stdlib.o
                                                  /usr/lib/gcc/arm-none-eabi/6.3.1/../../../arm-none-eabi/lib/thumb/v7-m/libc.a(lib_a-__call_atexit.o)
g_pfnVectors                                      ./build/./bsp/stm32/libraries/STM32F1xx_HAL/CMSIS/Device/ST/STM32F1xx/Source/Templates/gcc/startup_stm32f103xb.o
gettimeofday                                      ./build/./components/libc/compilers/minilibc/time.o
gmtime_r                                          ./build/./components/libc/compilers/minilibc/time.o
hardware_init_hook                                /usr/lib/gcc/arm-none-eabi/6.3.1/../../../arm-none-eabi/lib/thumb/v7-m/crt0.o
hello                                             ./build/./components/finsh/cmd.o
isalpha                                           ./build/./components/libc/compilers/minilibc/ctype.o
isdigit                                           ./build/./components/libc/compilers/minilibc/ctype.o
isprint                                           ./build/./components/libc/compilers/minilibc/ctype.o
isspace                                           ./build/./components/libc/compilers/minilibc/ctype.o
list                                              ./build/./components/finsh/cmd.o
list_device                                       ./build/./components/finsh/cmd.o
list_event                                        ./build/./components/finsh/cmd.o
list_mailbox                                      ./build/./components/finsh/cmd.o
list_mem                                          ./build/./src/mem.o
                                                  ./build/./components/finsh/msh.o
list_mempool                                      ./build/./components/finsh/cmd.o
list_msgqueue                                     ./build/./components/finsh/cmd.o
list_mutex                                        ./build/./components/finsh/cmd.o
list_sem                                          ./build/./components/finsh/cmd.o
list_thread                                       ./build/./components/finsh/cmd.o
                                                  ./build/./src/scheduler.o
                                                  ./build/./libcpu/arm/cortex-m3/cpuport.o
                                                  ./build/./components/finsh/msh.o
list_timer                                        ./build/./components/finsh/cmd.o
localtime                                         ./build/./components/libc/compilers/minilibc/time.o
localtime_r                                       ./build/./components/libc/compilers/minilibc/time.o
main                                              ./build/bsp/applications/main.o
                                                  ./build/./src/components.o
                                                  /usr/lib/gcc/arm-none-eabi/6.3.1/../../../arm-none-eabi/lib/thumb/v7-m/crt0.o
main_thread_entry                                 ./build/./src/components.o
malloc                                            ./build/./components/libc/compilers/minilibc/stdlib.o
                                                  /usr/lib/gcc/arm-none-eabi/6.3.1/../../../arm-none-eabi/lib/thumb/v7-m/libc.a(lib_a-__atexit.o)
memcmp                                            ./build/./src/kservice.o
                                                  ./build/./components/finsh/shell.o
memcpy                                            ./build/./src/kservice.o
                                                  ./build/./components/finsh/shell.o
                                                  ./build/./components/finsh/cmd.o
                                                  ./build/./components/drivers/src/ringbuffer.o
memmove                                           ./build/./src/kservice.o
memset                                            ./build/./src/kservice.o
                                                  ./build/./components/finsh/shell.o
                                                  ./build/./components/finsh/msh.o
                                                  ./build/bsp/board/board.o
                                                  /usr/lib/gcc/arm-none-eabi/6.3.1/../../../arm-none-eabi/lib/thumb/v7-m/crt0.o
mktime                                            ./build/./components/libc/compilers/minilibc/time.o
msh_auto_complete                                 ./build/./components/finsh/msh.o
                                                  ./build/./components/finsh/shell.o
msh_exec                                          ./build/./components/finsh/msh.o
                                                  ./build/./components/finsh/shell.o
msh_help                                          ./build/./components/finsh/msh.o
msh_is_used                                       ./build/./components/finsh/msh.o
                                                  ./build/./components/finsh/shell.o
qsort                                             ./build/./components/libc/compilers/minilibc/qsort.o
rand                                              ./build/./components/libc/compilers/minilibc/rand.o
rand_r                                            ./build/./components/libc/compilers/minilibc/rand.o
random                                            ./build/./components/libc/compilers/minilibc/rand.o
realloc                                           ./build/./components/libc/compilers/minilibc/stdlib.o
rt_application_init                               ./build/./src/components.o
rt_assert_handler                                 ./build/./src/kservice.o
                                                  ./build/./src/timer.o
                                                  ./build/./src/thread.o
                                                  ./build/./src/scheduler.o
                                                  ./build/./src/object.o
                                                  ./build/./src/mempool.o
                                                  ./build/./src/mem.o
                                                  ./build/./src/ipc.o
                                                  ./build/./src/idle.o
                                                  ./build/./src/device.o
                                                  ./build/./src/components.o
                                                  ./build/./libcpu/arm/cortex-m3/cpuport.o
                                                  ./build/./libcpu/arm/common/showmem.o
                                                  ./build/./components/libc/compilers/minilibc/time.o
                                                  ./build/./components/finsh/shell.o
                                                  ./build/./components/finsh/msh.o
                                                  ./build/./components/drivers/src/workqueue.o
                                                  ./build/./components/drivers/src/waitqueue.o
                                                  ./build/./components/drivers/src/ringbuffer.o
                                                  ./build/./components/drivers/src/ringblk_buf.o
                                                  ./build/./components/drivers/src/pipe.o
                                                  ./build/./components/drivers/src/dataqueue.o
                                                  ./build/./components/drivers/src/completion.o
                                                  ./build/./components/drivers/serial/serial.o
                                                  ./build/./components/drivers/misc/pin.o
                                                  ./build/./bsp/stm32/libraries/HAL_Drivers/drv_usart.o
rt_assert_hook                                    ./build/./src/kservice.o
rt_assert_set_hook                                ./build/./src/kservice.o
rt_calloc                                         ./build/./src/mem.o
                                                  ./build/./components/libc/compilers/minilibc/stdlib.o
                                                  ./build/./components/finsh/shell.o
rt_completion_done                                ./build/./components/drivers/src/completion.o
                                                  ./build/./components/drivers/serial/serial.o
rt_completion_init                                ./build/./components/drivers/src/completion.o
                                                  ./build/./components/drivers/serial/serial.o
rt_completion_wait                                ./build/./components/drivers/src/completion.o
                                                  ./build/./components/drivers/serial/serial.o
rt_components_board_init                          ./build/./src/components.o
                                                  ./build/./bsp/stm32/libraries/HAL_Drivers/drv_common.o
rt_components_init                                ./build/./src/components.o
rt_console_get_device                             ./build/./src/kservice.o
                                                  ./build/./components/finsh/shell.o
rt_console_set_device                             ./build/./src/kservice.o
                                                  ./build/./bsp/stm32/libraries/HAL_Drivers/drv_common.o
rt_critical_level                                 ./build/./src/scheduler.o
rt_current_priority                               ./build/./src/scheduler.o
rt_current_thread                                 ./build/./src/scheduler.o
                                                  ./build/./src/thread.o
rt_data_queue_deinit                              ./build/./components/drivers/src/dataqueue.o
                                                  ./build/./components/drivers/serial/serial.o
rt_data_queue_init                                ./build/./components/drivers/src/dataqueue.o
                                                  ./build/./components/drivers/serial/serial.o
rt_data_queue_peak                                ./build/./components/drivers/src/dataqueue.o
                                                  ./build/./components/drivers/serial/serial.o
rt_data_queue_pop                                 ./build/./components/drivers/src/dataqueue.o
                                                  ./build/./components/drivers/serial/serial.o
rt_data_queue_push                                ./build/./components/drivers/src/dataqueue.o
                                                  ./build/./components/drivers/serial/serial.o
rt_data_queue_reset                               ./build/./components/drivers/src/dataqueue.o
rt_delayed_work_init                              ./build/./components/drivers/src/workqueue.o
rt_device_close                                   ./build/./src/device.o
                                                  ./build/./src/kservice.o
                                                  ./build/./components/finsh/shell.o
rt_device_control                                 ./build/./src/device.o
                                                  ./build/./components/libc/compilers/minilibc/time.o
rt_device_create                                  ./build/./src/device.o
rt_device_destroy                                 ./build/./src/device.o
rt_device_find                                    ./build/./src/device.o
                                                  ./build/./src/kservice.o
                                                  ./build/./components/libc/compilers/minilibc/time.o
                                                  ./build/./components/finsh/shell.o
                                                  ./build/./components/drivers/src/pipe.o
rt_device_init                                    ./build/./src/device.o
rt_device_init_all                                ./build/./src/device.o
rt_device_open                                    ./build/./src/device.o
                                                  ./build/./src/kservice.o
                                                  ./build/./components/finsh/shell.o
rt_device_pin_register                            ./build/./components/drivers/misc/pin.o
                                                  ./build/./bsp/stm32/libraries/HAL_Drivers/drv_gpio.o
rt_device_read                                    ./build/./src/device.o
                                                  ./build/./components/finsh/shell.o
rt_device_register                                ./build/./src/device.o
                                                  ./build/./components/drivers/src/pipe.o
                                                  ./build/./components/drivers/serial/serial.o
                                                  ./build/./components/drivers/misc/pin.o
rt_device_set_rx_indicate                         ./build/./src/device.o
                                                  ./build/./components/finsh/shell.o
rt_device_set_tx_complete                         ./build/./src/device.o
rt_device_unregister                              ./build/./src/device.o
                                                  ./build/./components/drivers/src/pipe.o
rt_device_write                                   ./build/./src/device.o
                                                  ./build/./src/kservice.o
rt_enter_critical                                 ./build/./src/scheduler.o
                                                  ./build/./src/thread.o
                                                  ./build/./src/object.o
                                                  ./build/./src/idle.o
                                                  ./build/./src/device.o
                                                  ./build/./components/drivers/src/workqueue.o
                                                  ./build/./components/drivers/src/dataqueue.o
rt_event_control                                  ./build/./src/ipc.o
rt_event_create                                   ./build/./src/ipc.o
rt_event_delete                                   ./build/./src/ipc.o
rt_event_detach                                   ./build/./src/ipc.o
rt_event_init                                     ./build/./src/ipc.o
rt_event_recv                                     ./build/./src/ipc.o
rt_event_send                                     ./build/./src/ipc.o
rt_exit_critical                                  ./build/./src/scheduler.o
                                                  ./build/./src/thread.o
                                                  ./build/./src/object.o
                                                  ./build/./src/idle.o
                                                  ./build/./src/device.o
                                                  ./build/./components/drivers/src/workqueue.o
                                                  ./build/./components/drivers/src/dataqueue.o
rt_free                                           ./build/./src/mem.o
                                                  ./build/./src/object.o
                                                  ./build/./src/mempool.o
                                                  ./build/./src/kservice.o
                                                  ./build/./src/ipc.o
                                                  ./build/./src/idle.o
                                                  ./build/./src/device.o
                                                  ./build/./components/libc/compilers/minilibc/stdlib.o
                                                  ./build/./components/finsh/shell.o
                                                  ./build/./components/drivers/src/workqueue.o
                                                  ./build/./components/drivers/src/ringbuffer.o
                                                  ./build/./components/drivers/src/ringblk_buf.o
                                                  ./build/./components/drivers/src/pipe.o
                                                  ./build/./components/drivers/src/dataqueue.o
                                                  ./build/./components/drivers/serial/serial.o
rt_free_align                                     ./build/./src/kservice.o
rt_free_sethook                                   ./build/./src/mem.o
rt_get_errno                                      ./build/./src/kservice.o
rt_hw_backtrace                                   ./build/./libcpu/arm/common/backtrace.o
rt_hw_board_init                                  ./build/./bsp/stm32/libraries/HAL_Drivers/drv_common.o
                                                  ./build/./src/components.o
rt_hw_console_output                              ./build/./src/kservice.o
rt_hw_context_switch                              ./build/./libcpu/arm/cortex-m3/context_gcc.o
                                                  ./build/./src/scheduler.o
rt_hw_context_switch_interrupt                    ./build/./libcpu/arm/cortex-m3/context_gcc.o
                                                  ./build/./src/scheduler.o
rt_hw_context_switch_to                           ./build/./libcpu/arm/cortex-m3/context_gcc.o
                                                  ./build/./src/scheduler.o
rt_hw_cpu_reset                                   ./build/./libcpu/arm/cortex-m3/cpuport.o
                                                  ./build/./bsp/stm32/libraries/HAL_Drivers/drv_common.o
rt_hw_cpu_shutdown                                ./build/./libcpu/arm/cortex-m3/cpuport.o
rt_hw_exception_install                           ./build/./libcpu/arm/cortex-m3/cpuport.o
rt_hw_hard_fault_exception                        ./build/./libcpu/arm/cortex-m3/cpuport.o
                                                  ./build/./libcpu/arm/cortex-m3/context_gcc.o
rt_hw_interrupt_check                             ./build/./libcpu/arm/cortex-m3/context_gcc.o
rt_hw_interrupt_disable                           ./build/./libcpu/arm/cortex-m3/context_gcc.o
                                                  ./build/./src/timer.o
                                                  ./build/./src/thread.o
                                                  ./build/./src/scheduler.o
                                                  ./build/./src/object.o
                                                  ./build/./src/mempool.o
                                                  ./build/./src/mem.o
                                                  ./build/./src/irq.o
                                                  ./build/./src/ipc.o
                                                  ./build/./src/idle.o
                                                  ./build/./src/components.o
                                                  ./build/./src/clock.o
                                                  ./build/./components/finsh/cmd.o
                                                  ./build/./components/drivers/src/workqueue.o
                                                  ./build/./components/drivers/src/waitqueue.o
                                                  ./build/./components/drivers/src/ringblk_buf.o
                                                  ./build/./components/drivers/src/dataqueue.o
                                                  ./build/./components/drivers/src/completion.o
                                                  ./build/./components/drivers/serial/serial.o
                                                  ./build/./bsp/stm32/libraries/HAL_Drivers/drv_usart.o
                                                  ./build/./bsp/stm32/libraries/HAL_Drivers/drv_gpio.o
rt_hw_interrupt_enable                            ./build/./libcpu/arm/cortex-m3/context_gcc.o
                                                  ./build/./src/timer.o
                                                  ./build/./src/thread.o
                                                  ./build/./src/scheduler.o
                                                  ./build/./src/object.o
                                                  ./build/./src/mempool.o
                                                  ./build/./src/mem.o
                                                  ./build/./src/irq.o
                                                  ./build/./src/ipc.o
                                                  ./build/./src/idle.o
                                                  ./build/./src/clock.o
                                                  ./build/./components/finsh/cmd.o
                                                  ./build/./components/drivers/src/workqueue.o
                                                  ./build/./components/drivers/src/waitqueue.o
                                                  ./build/./components/drivers/src/ringblk_buf.o
                                                  ./build/./components/drivers/src/dataqueue.o
                                                  ./build/./components/drivers/src/completion.o
                                                  ./build/./components/drivers/serial/serial.o
                                                  ./build/./bsp/stm32/libraries/HAL_Drivers/drv_usart.o
                                                  ./build/./bsp/stm32/libraries/HAL_Drivers/drv_gpio.o
rt_hw_interrupt_thread_switch                     ./build/./libcpu/arm/cortex-m3/context_gcc.o
rt_hw_pin_init                                    ./build/./bsp/stm32/libraries/HAL_Drivers/drv_gpio.o
                                                  ./build/./bsp/stm32/libraries/HAL_Drivers/drv_common.o
rt_hw_serial_isr                                  ./build/./components/drivers/serial/serial.o
                                                  ./build/./bsp/stm32/libraries/HAL_Drivers/drv_usart.o
rt_hw_serial_register                             ./build/./components/drivers/serial/serial.o
                                                  ./build/./bsp/stm32/libraries/HAL_Drivers/drv_usart.o
rt_hw_show_memory                                 ./build/./libcpu/arm/common/showmem.o
rt_hw_stack_init                                  ./build/./libcpu/arm/cortex-m3/cpuport.o
                                                  ./build/./src/thread.o
rt_hw_systick_init                                ./build/./bsp/stm32/libraries/HAL_Drivers/drv_common.o
rt_hw_us_delay                                    ./build/./bsp/stm32/libraries/HAL_Drivers/drv_common.o
rt_hw_usart_init                                  ./build/./bsp/stm32/libraries/HAL_Drivers/drv_usart.o
                                                  ./build/./bsp/stm32/libraries/HAL_Drivers/drv_common.o
rt_interrupt_enter                                ./build/./src/irq.o
                                                  ./build/./bsp/stm32/libraries/HAL_Drivers/drv_usart.o
                                                  ./build/./bsp/stm32/libraries/HAL_Drivers/drv_gpio.o
                                                  ./build/./bsp/stm32/libraries/HAL_Drivers/drv_common.o
rt_interrupt_enter_sethook                        ./build/./src/irq.o
rt_interrupt_from_thread                          ./build/./libcpu/arm/cortex-m3/cpuport.o
                                                  ./build/./libcpu/arm/cortex-m3/context_gcc.o
rt_interrupt_get_nest                             ./build/./src/irq.o
                                                  ./build/./src/object.o
                                                  ./build/./src/mempool.o
                                                  ./build/./src/mem.o
                                                  ./build/./src/kservice.o
                                                  ./build/./src/ipc.o
                                                  ./build/./src/idle.o
                                                  ./build/./components/drivers/src/waitqueue.o
                                                  ./build/./components/drivers/src/dataqueue.o
                                                  ./build/./components/drivers/src/completion.o
rt_interrupt_leave                                ./build/./src/irq.o
                                                  ./build/./bsp/stm32/libraries/HAL_Drivers/drv_usart.o
                                                  ./build/./bsp/stm32/libraries/HAL_Drivers/drv_gpio.o
                                                  ./build/./bsp/stm32/libraries/HAL_Drivers/drv_common.o
rt_interrupt_leave_sethook                        ./build/./src/irq.o
rt_interrupt_nest                                 ./build/./src/irq.o
                                                  ./build/./src/scheduler.o
rt_interrupt_to_thread                            ./build/./libcpu/arm/cortex-m3/cpuport.o
                                                  ./build/./libcpu/arm/cortex-m3/context_gcc.o
rt_kprintf                                        ./build/./src/kservice.o
                                                  ./build/./src/scheduler.o
                                                  ./build/./src/object.o
                                                  ./build/./src/mempool.o
                                                  ./build/./src/mem.o
                                                  ./build/./src/ipc.o
                                                  ./build/./src/idle.o
                                                  ./build/./src/device.o
                                                  ./build/./libcpu/arm/cortex-m3/cpuport.o
                                                  ./build/./libcpu/arm/common/showmem.o
                                                  ./build/./libcpu/arm/common/backtrace.o
                                                  ./build/./components/finsh/shell.o
                                                  ./build/./components/finsh/msh.o
                                                  ./build/./components/finsh/cmd.o
                                                  ./build/./components/drivers/src/waitqueue.o
                                                  ./build/./components/drivers/src/dataqueue.o
                                                  ./build/./components/drivers/src/completion.o
                                                  ./build/./components/drivers/serial/serial.o
rt_kputs                                          ./build/./src/kservice.o
rt_malloc                                         ./build/./src/mem.o
                                                  ./build/./src/thread.o
                                                  ./build/./src/object.o
                                                  ./build/./src/mempool.o
                                                  ./build/./src/kservice.o
                                                  ./build/./src/ipc.o
                                                  ./build/./src/device.o
                                                  ./build/./components/libc/compilers/minilibc/stdlib.o
                                                  ./build/./components/finsh/shell.o
                                                  ./build/./components/drivers/src/workqueue.o
                                                  ./build/./components/drivers/src/ringbuffer.o
                                                  ./build/./components/drivers/src/ringblk_buf.o
                                                  ./build/./components/drivers/src/pipe.o
                                                  ./build/./components/drivers/src/dataqueue.o
                                                  ./build/./components/drivers/serial/serial.o
rt_malloc_align                                   ./build/./src/kservice.o
rt_malloc_sethook                                 ./build/./src/mem.o
rt_mb_control                                     ./build/./src/ipc.o
rt_mb_create                                      ./build/./src/ipc.o
rt_mb_delete                                      ./build/./src/ipc.o
rt_mb_detach                                      ./build/./src/ipc.o
rt_mb_init                                        ./build/./src/ipc.o
rt_mb_recv                                        ./build/./src/ipc.o
rt_mb_send                                        ./build/./src/ipc.o
rt_mb_send_wait                                   ./build/./src/ipc.o
rt_memcmp                                         ./build/./src/kservice.o
rt_memcpy                                         ./build/./src/kservice.o
                                                  ./build/./src/mem.o
                                                  ./build/./src/ipc.o
                                                  ./build/./components/drivers/serial/serial.o
rt_memmove                                        ./build/./src/kservice.o
                                                  ./build/./components/finsh/shell.o
rt_memory_info                                    ./build/./src/mem.o
rt_memset                                         ./build/./src/kservice.o
                                                  ./build/./src/thread.o
                                                  ./build/./src/object.o
                                                  ./build/./src/mem.o
                                                  ./build/./src/device.o
                                                  ./build/./components/drivers/src/pipe.o
                                                  ./build/./components/drivers/serial/serial.o
rt_mp_alloc                                       ./build/./src/mempool.o
rt_mp_alloc_sethook                               ./build/./src/mempool.o
rt_mp_create                                      ./build/./src/mempool.o
rt_mp_delete                                      ./build/./src/mempool.o
rt_mp_detach                                      ./build/./src/mempool.o
rt_mp_free                                        ./build/./src/mempool.o
rt_mp_free_sethook                                ./build/./src/mempool.o
rt_mp_init                                        ./build/./src/mempool.o
rt_mq_control                                     ./build/./src/ipc.o
rt_mq_create                                      ./build/./src/ipc.o
rt_mq_delete                                      ./build/./src/ipc.o
rt_mq_detach                                      ./build/./src/ipc.o
rt_mq_init                                        ./build/./src/ipc.o
rt_mq_recv                                        ./build/./src/ipc.o
rt_mq_send                                        ./build/./src/ipc.o
rt_mq_send_wait                                   ./build/./src/ipc.o
rt_mq_urgent                                      ./build/./src/ipc.o
rt_mutex_control                                  ./build/./src/ipc.o
rt_mutex_create                                   ./build/./src/ipc.o
rt_mutex_delete                                   ./build/./src/ipc.o
rt_mutex_detach                                   ./build/./src/ipc.o
                                                  ./build/./components/drivers/src/pipe.o
rt_mutex_init                                     ./build/./src/ipc.o
                                                  ./build/./components/drivers/src/pipe.o
rt_mutex_release                                  ./build/./src/ipc.o
                                                  ./build/./components/drivers/src/pipe.o
rt_mutex_take                                     ./build/./src/ipc.o
                                                  ./build/./components/drivers/src/pipe.o
rt_object_allocate                                ./build/./src/object.o
                                                  ./build/./src/timer.o
                                                  ./build/./src/thread.o
                                                  ./build/./src/mempool.o
                                                  ./build/./src/ipc.o
rt_object_attach_sethook                          ./build/./src/object.o
rt_object_delete                                  ./build/./src/object.o
                                                  ./build/./src/timer.o
                                                  ./build/./src/thread.o
                                                  ./build/./src/mempool.o
                                                  ./build/./src/ipc.o
                                                  ./build/./src/idle.o
rt_object_detach                                  ./build/./src/object.o
                                                  ./build/./src/timer.o
                                                  ./build/./src/thread.o
                                                  ./build/./src/mempool.o
                                                  ./build/./src/ipc.o
                                                  ./build/./src/idle.o
                                                  ./build/./src/device.o
rt_object_detach_sethook                          ./build/./src/object.o
rt_object_find                                    ./build/./src/object.o
rt_object_get_information                         ./build/./src/object.o
                                                  ./build/./src/thread.o
                                                  ./build/./src/device.o
                                                  ./build/./components/finsh/cmd.o
rt_object_get_length                              ./build/./src/object.o
rt_object_get_pointers                            ./build/./src/object.o
rt_object_get_type                                ./build/./src/object.o
                                                  ./build/./src/timer.o
                                                  ./build/./src/thread.o
                                                  ./build/./src/mempool.o
                                                  ./build/./src/ipc.o
                                                  ./build/./src/device.o
rt_object_init                                    ./build/./src/object.o
                                                  ./build/./src/timer.o
                                                  ./build/./src/thread.o
                                                  ./build/./src/mempool.o
                                                  ./build/./src/ipc.o
                                                  ./build/./src/device.o
rt_object_is_systemobject                         ./build/./src/object.o
                                                  ./build/./src/timer.o
                                                  ./build/./src/thread.o
                                                  ./build/./src/mempool.o
                                                  ./build/./src/ipc.o
                                                  ./build/./src/idle.o
                                                  ./build/./src/device.o
rt_object_put_hook                                ./build/./src/object.o
                                                  ./build/./src/timer.o
                                                  ./build/./src/ipc.o
rt_object_put_sethook                             ./build/./src/object.o
rt_object_take_hook                               ./build/./src/object.o
                                                  ./build/./src/timer.o
                                                  ./build/./src/ipc.o
rt_object_take_sethook                            ./build/./src/object.o
rt_object_trytake_hook                            ./build/./src/object.o
                                                  ./build/./src/ipc.o
rt_object_trytake_sethook                         ./build/./src/object.o
rt_pin_attach_irq                                 ./build/./components/drivers/misc/pin.o
rt_pin_detach_irq                                 ./build/./components/drivers/misc/pin.o
rt_pin_irq_enable                                 ./build/./components/drivers/misc/pin.o
rt_pin_mode                                       ./build/./components/drivers/misc/pin.o
                                                  ./build/bsp/applications/main.o
rt_pin_read                                       ./build/./components/drivers/misc/pin.o
rt_pin_write                                      ./build/./components/drivers/misc/pin.o
                                                  ./build/bsp/applications/main.o
rt_pipe_close                                     ./build/./components/drivers/src/pipe.o
rt_pipe_control                                   ./build/./components/drivers/src/pipe.o
rt_pipe_create                                    ./build/./components/drivers/src/pipe.o
rt_pipe_delete                                    ./build/./components/drivers/src/pipe.o
rt_pipe_open                                      ./build/./components/drivers/src/pipe.o
rt_pipe_read                                      ./build/./components/drivers/src/pipe.o
rt_pipe_write                                     ./build/./components/drivers/src/pipe.o
rt_rbb_blk_alloc                                  ./build/./components/drivers/src/ringblk_buf.o
rt_rbb_blk_buf                                    ./build/./components/drivers/src/ringblk_buf.o
rt_rbb_blk_free                                   ./build/./components/drivers/src/ringblk_buf.o
rt_rbb_blk_get                                    ./build/./components/drivers/src/ringblk_buf.o
rt_rbb_blk_put                                    ./build/./components/drivers/src/ringblk_buf.o
rt_rbb_blk_queue_buf                              ./build/./components/drivers/src/ringblk_buf.o
rt_rbb_blk_queue_free                             ./build/./components/drivers/src/ringblk_buf.o
rt_rbb_blk_queue_get                              ./build/./components/drivers/src/ringblk_buf.o
rt_rbb_blk_queue_len                              ./build/./components/drivers/src/ringblk_buf.o
rt_rbb_blk_size                                   ./build/./components/drivers/src/ringblk_buf.o
rt_rbb_create                                     ./build/./components/drivers/src/ringblk_buf.o
rt_rbb_destroy                                    ./build/./components/drivers/src/ringblk_buf.o
rt_rbb_get_buf_size                               ./build/./components/drivers/src/ringblk_buf.o
rt_rbb_init                                       ./build/./components/drivers/src/ringblk_buf.o
rt_rbb_next_blk_queue_len                         ./build/./components/drivers/src/ringblk_buf.o
rt_realloc                                        ./build/./src/mem.o
                                                  ./build/./components/libc/compilers/minilibc/stdlib.o
rt_ringbuffer_create                              ./build/./components/drivers/src/ringbuffer.o
                                                  ./build/./components/drivers/src/pipe.o
rt_ringbuffer_data_len                            ./build/./components/drivers/src/ringbuffer.o
rt_ringbuffer_destroy                             ./build/./components/drivers/src/ringbuffer.o
                                                  ./build/./components/drivers/src/pipe.o
rt_ringbuffer_get                                 ./build/./components/drivers/src/ringbuffer.o
                                                  ./build/./components/drivers/src/pipe.o
rt_ringbuffer_getchar                             ./build/./components/drivers/src/ringbuffer.o
rt_ringbuffer_init                                ./build/./components/drivers/src/ringbuffer.o
rt_ringbuffer_put                                 ./build/./components/drivers/src/ringbuffer.o
                                                  ./build/./components/drivers/src/pipe.o
rt_ringbuffer_put_force                           ./build/./components/drivers/src/ringbuffer.o
rt_ringbuffer_putchar                             ./build/./components/drivers/src/ringbuffer.o
rt_ringbuffer_putchar_force                       ./build/./components/drivers/src/ringbuffer.o
rt_ringbuffer_reset                               ./build/./components/drivers/src/ringbuffer.o
rt_schedule                                       ./build/./src/scheduler.o
                                                  ./build/./src/thread.o
                                                  ./build/./src/mempool.o
                                                  ./build/./src/ipc.o
                                                  ./build/./components/drivers/src/workqueue.o
                                                  ./build/./components/drivers/src/waitqueue.o
                                                  ./build/./components/drivers/src/dataqueue.o
                                                  ./build/./components/drivers/src/completion.o
rt_schedule_insert_thread                         ./build/./src/scheduler.o
                                                  ./build/./src/thread.o
rt_schedule_remove_thread                         ./build/./src/scheduler.o
                                                  ./build/./src/thread.o
rt_scheduler_sethook                              ./build/./src/scheduler.o
rt_sem_control                                    ./build/./src/ipc.o
rt_sem_create                                     ./build/./src/ipc.o
rt_sem_delete                                     ./build/./src/ipc.o
rt_sem_detach                                     ./build/./src/ipc.o
rt_sem_init                                       ./build/./src/ipc.o
                                                  ./build/./src/mem.o
                                                  ./build/./components/finsh/shell.o
                                                  ./build/./components/drivers/src/workqueue.o
rt_sem_release                                    ./build/./src/ipc.o
                                                  ./build/./src/mem.o
                                                  ./build/./components/finsh/shell.o
                                                  ./build/./components/drivers/src/workqueue.o
rt_sem_take                                       ./build/./src/ipc.o
                                                  ./build/./src/mem.o
                                                  ./build/./components/finsh/shell.o
                                                  ./build/./components/drivers/src/workqueue.o
rt_sem_trytake                                    ./build/./src/ipc.o
                                                  ./build/./components/drivers/src/workqueue.o
rt_set_errno                                      ./build/./src/kservice.o
                                                  ./build/./src/mempool.o
                                                  ./build/./src/device.o
                                                  ./build/./components/drivers/src/pipe.o
                                                  ./build/./components/drivers/serial/serial.o
rt_show_version                                   ./build/./src/kservice.o
                                                  ./build/./src/components.o
                                                  ./build/./components/finsh/cmd.o
rt_snprintf                                       ./build/./src/kservice.o
rt_sprintf                                        ./build/./src/kservice.o
                                                  ./build/./src/idle.o
rt_strcasecmp                                     ./build/./src/kservice.o
rt_strcmp                                         ./build/./src/kservice.o
rt_strdup                                         ./build/./src/kservice.o
rt_strlen                                         ./build/./src/kservice.o
                                                  ./build/./components/libc/compilers/minilibc/string.o
rt_strncmp                                        ./build/./src/kservice.o
                                                  ./build/./src/thread.o
                                                  ./build/./src/object.o
                                                  ./build/./src/device.o
rt_strncpy                                        ./build/./src/kservice.o
                                                  ./build/./src/object.o
                                                  ./build/./components/libc/compilers/minilibc/string.o
                                                  ./build/./components/finsh/msh.o
rt_strnlen                                        ./build/./src/kservice.o
rt_strstr                                         ./build/./src/kservice.o
rt_system_heap_init                               ./build/./src/mem.o
                                                  ./build/./bsp/stm32/libraries/HAL_Drivers/drv_common.o
rt_system_object_init                             ./build/./src/object.o
rt_system_scheduler_init                          ./build/./src/scheduler.o
                                                  ./build/./src/components.o
rt_system_scheduler_start                         ./build/./src/scheduler.o
                                                  ./build/./src/components.o
rt_system_tick_init                               ./build/./src/clock.o
rt_system_timer_init                              ./build/./src/timer.o
                                                  ./build/./src/components.o
rt_system_timer_thread_init                       ./build/./src/timer.o
                                                  ./build/./src/components.o
rt_thread_control                                 ./build/./src/thread.o
                                                  ./build/./src/ipc.o
rt_thread_create                                  ./build/./src/thread.o
                                                  ./build/./src/components.o
                                                  ./build/./components/finsh/shell.o
                                                  ./build/./components/drivers/src/workqueue.o
rt_thread_defunct                                 ./build/./src/scheduler.o
                                                  ./build/./src/thread.o
                                                  ./build/./src/idle.o
rt_thread_delay                                   ./build/./src/thread.o
rt_thread_delay_until                             ./build/./src/thread.o
rt_thread_delete                                  ./build/./src/thread.o
                                                  ./build/./components/drivers/src/workqueue.o
rt_thread_detach                                  ./build/./src/thread.o
rt_thread_exit                                    ./build/./src/thread.o
rt_thread_find                                    ./build/./src/thread.o
rt_thread_idle_delhook                            ./build/./src/idle.o
rt_thread_idle_excute                             ./build/./src/idle.o
rt_thread_idle_gethandler                         ./build/./src/idle.o
rt_thread_idle_init                               ./build/./src/idle.o
                                                  ./build/./src/components.o
rt_thread_idle_sethook                            ./build/./src/idle.o
rt_thread_init                                    ./build/./src/thread.o
                                                  ./build/./src/idle.o
rt_thread_inited_sethook                          ./build/./src/thread.o
rt_thread_mdelay                                  ./build/./src/thread.o
                                                  ./build/bsp/applications/main.o
                                                  ./build/./bsp/stm32/libraries/HAL_Drivers/drv_common.o
rt_thread_priority_table                          ./build/./src/scheduler.o
rt_thread_ready_priority_group                    ./build/./src/scheduler.o
rt_thread_resume                                  ./build/./src/thread.o
                                                  ./build/./src/mempool.o
                                                  ./build/./src/ipc.o
                                                  ./build/./components/drivers/src/workqueue.o
                                                  ./build/./components/drivers/src/waitqueue.o
                                                  ./build/./components/drivers/src/dataqueue.o
                                                  ./build/./components/drivers/src/completion.o
rt_thread_resume_sethook                          ./build/./src/thread.o
rt_thread_self                                    ./build/./src/thread.o
                                                  ./build/./src/mempool.o
                                                  ./build/./src/kservice.o
                                                  ./build/./src/ipc.o
                                                  ./build/./src/device.o
                                                  ./build/./src/clock.o
                                                  ./build/./libcpu/arm/cortex-m3/cpuport.o
                                                  ./build/./components/drivers/src/workqueue.o
                                                  ./build/./components/drivers/src/waitqueue.o
                                                  ./build/./components/drivers/src/dataqueue.o
                                                  ./build/./components/drivers/src/completion.o
rt_thread_sleep                                   ./build/./src/thread.o
rt_thread_startup                                 ./build/./src/thread.o
                                                  ./build/./src/idle.o
                                                  ./build/./src/components.o
                                                  ./build/./components/finsh/shell.o
                                                  ./build/./components/drivers/src/workqueue.o
rt_thread_suspend                                 ./build/./src/thread.o
                                                  ./build/./src/mempool.o
                                                  ./build/./src/ipc.o
                                                  ./build/./components/drivers/src/workqueue.o
                                                  ./build/./components/drivers/src/waitqueue.o
                                                  ./build/./components/drivers/src/dataqueue.o
                                                  ./build/./components/drivers/src/completion.o
rt_thread_suspend_sethook                         ./build/./src/thread.o
rt_thread_switch_interrupt_flag                   ./build/./libcpu/arm/cortex-m3/cpuport.o
                                                  ./build/./libcpu/arm/cortex-m3/context_gcc.o
rt_thread_timeout                                 ./build/./src/thread.o
rt_thread_yield                                   ./build/./src/thread.o
                                                  ./build/./src/clock.o
rt_tick_from_millisecond                          ./build/./src/clock.o
                                                  ./build/./src/thread.o
                                                  ./build/./components/drivers/src/waitqueue.o
rt_tick_get                                       ./build/./src/clock.o
                                                  ./build/./src/timer.o
                                                  ./build/./src/thread.o
                                                  ./build/./src/mempool.o
                                                  ./build/./src/ipc.o
                                                  ./build/./components/libc/compilers/minilibc/time.o
                                                  ./build/./components/finsh/cmd.o
                                                  ./build/./bsp/stm32/libraries/HAL_Drivers/drv_common.o
rt_tick_increase                                  ./build/./src/clock.o
                                                  ./build/./bsp/stm32/libraries/HAL_Drivers/drv_common.o
rt_tick_set                                       ./build/./src/clock.o
rt_timer_check                                    ./build/./src/timer.o
                                                  ./build/./src/clock.o
rt_timer_control                                  ./build/./src/timer.o
                                                  ./build/./src/thread.o
                                                  ./build/./src/mempool.o
                                                  ./build/./src/ipc.o
                                                  ./build/./components/drivers/src/waitqueue.o
                                                  ./build/./components/drivers/src/dataqueue.o
                                                  ./build/./components/drivers/src/completion.o
rt_timer_create                                   ./build/./src/timer.o
rt_timer_delete                                   ./build/./src/timer.o
rt_timer_detach                                   ./build/./src/timer.o
                                                  ./build/./src/thread.o
                                                  ./build/./components/drivers/src/workqueue.o
rt_timer_enter_sethook                            ./build/./src/timer.o
rt_timer_exit_sethook                             ./build/./src/timer.o
rt_timer_init                                     ./build/./src/timer.o
                                                  ./build/./src/thread.o
                                                  ./build/./components/drivers/src/workqueue.o
rt_timer_next_timeout_tick                        ./build/./src/timer.o
rt_timer_start                                    ./build/./src/timer.o
                                                  ./build/./src/thread.o
                                                  ./build/./src/mempool.o
                                                  ./build/./src/ipc.o
                                                  ./build/./components/drivers/src/workqueue.o
                                                  ./build/./components/drivers/src/waitqueue.o
                                                  ./build/./components/drivers/src/dataqueue.o
                                                  ./build/./components/drivers/src/completion.o
rt_timer_stop                                     ./build/./src/timer.o
                                                  ./build/./src/thread.o
                                                  ./build/./components/drivers/src/workqueue.o
rt_vsnprintf                                      ./build/./src/kservice.o
rt_vsprintf                                       ./build/./src/kservice.o
rt_workqueue_cancel_all_work                      ./build/./components/drivers/src/workqueue.o
rt_workqueue_cancel_work                          ./build/./components/drivers/src/workqueue.o
rt_workqueue_cancel_work_sync                     ./build/./components/drivers/src/workqueue.o
rt_workqueue_create                               ./build/./components/drivers/src/workqueue.o
rt_workqueue_critical_work                        ./build/./components/drivers/src/workqueue.o
rt_workqueue_destroy                              ./build/./components/drivers/src/workqueue.o
rt_workqueue_dowork                               ./build/./components/drivers/src/workqueue.o
rt_workqueue_submit_work                          ./build/./components/drivers/src/workqueue.o
rt_wqueue_add                                     ./build/./components/drivers/src/waitqueue.o
rt_wqueue_remove                                  ./build/./components/drivers/src/waitqueue.o
rt_wqueue_wait                                    ./build/./components/drivers/src/waitqueue.o
rt_wqueue_wakeup                                  ./build/./components/drivers/src/waitqueue.o
rtthread_startup                                  ./build/./src/components.o
shell                                             ./build/./components/finsh/shell.o
simple_strtol                                     ./build/./components/libc/compilers/minilibc/string.o
simple_strtoll                                    ./build/./components/libc/compilers/minilibc/string.o
simple_strtoul                                    ./build/./components/libc/compilers/minilibc/string.o
simple_strtoull                                   ./build/./components/libc/compilers/minilibc/string.o
sin                                               ./build/./components/libc/compilers/minilibc/math.o
snprintf                                          ./build/./src/kservice.o
software_init_hook                                /usr/lib/gcc/arm-none-eabi/6.3.1/../../../arm-none-eabi/lib/thumb/v7-m/crt0.o
sprintf                                           ./build/./src/kservice.o
srand                                             ./build/./components/libc/compilers/minilibc/rand.o
srandom                                           ./build/./components/libc/compilers/minilibc/rand.o
sscanf                                            ./build/./components/libc/compilers/minilibc/string.o
strcasecmp                                        ./build/./src/kservice.o
strcat                                            ./build/./components/libc/compilers/minilibc/string.o
strchr                                            ./build/./components/libc/compilers/minilibc/string.o
strcmp                                            ./build/./components/libc/compilers/minilibc/string.o
strcpy                                            ./build/./components/libc/compilers/minilibc/string.o
                                                  ./build/./components/finsh/shell.o
strcspn                                           ./build/./components/libc/compilers/minilibc/string.o
strdup                                            ./build/./src/kservice.o
strlcpy                                           ./build/./components/libc/compilers/minilibc/string.o
strlen                                            ./build/./src/kservice.o
                                                  ./build/./components/libc/compilers/minilibc/string.o
                                                  ./build/./components/finsh/shell.o
                                                  ./build/./components/finsh/msh.o
strncasecmp                                       ./build/./components/libc/compilers/minilibc/string.o
strncat                                           ./build/./components/libc/compilers/minilibc/string.o
strncmp                                           ./build/./components/libc/compilers/minilibc/string.o
                                                  ./build/./components/finsh/msh.o
                                                  ./build/./components/finsh/cmd.o
strncpy                                           ./build/./components/libc/compilers/minilibc/string.o
                                                  ./build/./components/finsh/shell.o
strrchr                                           ./build/./components/libc/compilers/minilibc/string.o
strspn                                            ./build/./components/libc/compilers/minilibc/string.o
strstr                                            ./build/./src/kservice.o
strtok                                            ./build/./components/libc/compilers/minilibc/string.o
strtok_r                                          ./build/./components/libc/compilers/minilibc/string.o
strtol                                            ./build/./components/libc/compilers/minilibc/string.o
strtoll                                           ./build/./components/libc/compilers/minilibc/string.o
time                                              ./build/./components/libc/compilers/minilibc/time.o
tolower                                           ./build/./components/libc/compilers/minilibc/string.o
toupper                                           ./build/./components/libc/compilers/minilibc/string.o
uwTick                                            ./build/./bsp/stm32/libraries/STM32F1xx_HAL/STM32F1xx_HAL_Driver/Src/stm32f1xx_hal.o
uwTickFreq                                        ./build/./bsp/stm32/libraries/STM32F1xx_HAL/STM32F1xx_HAL_Driver/Src/stm32f1xx_hal.o
uwTickPrio                                        ./build/./bsp/stm32/libraries/STM32F1xx_HAL/STM32F1xx_HAL_Driver/Src/stm32f1xx_hal.o
                                                  ./build/./bsp/stm32/libraries/STM32F1xx_HAL/STM32F1xx_HAL_Driver/Src/stm32f1xx_hal_rcc.o
version                                           ./build/./components/finsh/cmd.o
vsprintf                                          ./build/./src/kservice.o
vsscanf                                           ./build/./components/libc/compilers/minilibc/string.o
